
========================================================================

** ELF Header Information

    File Name: .\code.axf

    Machine class: ELFCLASS32 (32-bit)
    Data encoding: ELFDATA2LSB (Little endian)
    Header version: EV_CURRENT (Current version)
    Operating System ABI: none
    ABI Version: 0
    File Type: ET_EXEC (Executable) (2)
    Machine: EM_ARM (ARM)

    Image Entry point: 0x00000139
    Flags: EF_ARM_HASENTRY + EF_ARM_ABI_FLOAT_SOFT (0x05000202)

    ARM ELF revision: 5 (ABI version 2)

    Conforms to Soft float procedure-call standard

    Built with
    Component: ARM Compiler 5.06 update 6 (build 750) Tool: armasm [4d35ec]
    Component: ARM Compiler 5.06 update 6 (build 750) Tool: armlink [4d35ed]

    Header size: 52 bytes (0x34)
    Program header entry size: 32 bytes (0x20)
    Section header entry size: 40 bytes (0x28)

    Program header entries: 1
    Section header entries: 16

    Program header offset: 66888 (0x00010548)
    Section header offset: 66920 (0x00010568)

    Section header string table index: 15

========================================================================

** Program header #0

    Type          : PT_LOAD (1)
    File Offset   : 52 (0x34)
    Virtual Addr  : 0x00000000
    Physical Addr : 0x00000000
    Size in file  : 12304 bytes (0x3010)
    Size in memory: 14476 bytes (0x388c)
    Flags         : PF_X + PF_W + PF_R + PF_ARM_ENTRY (0x80000007)
    Alignment     : 16


========================================================================

** Section #1

    Name        : ER_IROM1
    Type        : SHT_PROGBITS (0x00000001)
    Flags       : SHF_ALLOC + SHF_EXECINSTR (0x00000006)
    Addr        : 0x00000000
    File Offset : 52 (0x34)
    Size        : 12284 bytes (0x2ffc)
    Link        : SHN_UNDEF
    Info        : 0
    Alignment   : 4
    Entry Size  : 0

    $d.realdata
    RESET
    __Vectors
        0x00000000:    20000890    ...     DCD    536873104
        0x00000004:    00000139    9...    DCD    313
        0x00000008:    00000000    ....    DCD    0
        0x0000000c:    00000000    ....    DCD    0
        0x00000010:    00000000    ....    DCD    0
        0x00000014:    00000000    ....    DCD    0
        0x00000018:    00000000    ....    DCD    0
        0x0000001c:    00000000    ....    DCD    0
        0x00000020:    00000000    ....    DCD    0
        0x00000024:    00000000    ....    DCD    0
        0x00000028:    00000000    ....    DCD    0
        0x0000002c:    00000000    ....    DCD    0
        0x00000030:    00000000    ....    DCD    0
        0x00000034:    00000000    ....    DCD    0
        0x00000038:    00000000    ....    DCD    0
        0x0000003c:    00000141    A...    DCD    321
        0x00000040:    00000149    I...    DCD    329
        0x00000044:    00000151    Q...    DCD    337
        0x00000048:    00000159    Y...    DCD    345
        0x0000004c:    00000161    a...    DCD    353
        0x00000050:    00000169    i...    DCD    361
    $t
    !!!main
    __main
        0x00000054:    f000f802    ....    BL       __scatterload ; 0x5c
        0x00000058:    f000f842    ..B.    BL       __rt_entry ; 0xe0
    !!!scatter
    __scatterload
    __scatterload_rt2
    __scatterload_rt2_thumb_only
        0x0000005c:    a00c        ..      ADR      r0,{pc}+0x34 ; 0x90
        0x0000005e:    c830        0.      LDM      r0!,{r4,r5}
        0x00000060:    3808        .8      SUBS     r0,r0,#8
        0x00000062:    1824        $.      ADDS     r4,r4,r0
        0x00000064:    182d        -.      ADDS     r5,r5,r0
        0x00000066:    46a2        .F      MOV      r10,r4
        0x00000068:    1e67        g.      SUBS     r7,r4,#1
        0x0000006a:    46ab        .F      MOV      r11,r5
    __scatterload_null
        0x0000006c:    4654        TF      MOV      r4,r10
        0x0000006e:    465d        ]F      MOV      r5,r11
        0x00000070:    42ac        .B      CMP      r4,r5
        0x00000072:    d101        ..      BNE      0x78 ; __scatterload_null + 12
        0x00000074:    f000f834    ..4.    BL       __rt_entry ; 0xe0
        0x00000078:    467e        ~F      MOV      r6,pc
        0x0000007a:    3e0f        .>      SUBS     r6,r6,#0xf
        0x0000007c:    cc0f        ..      LDM      r4!,{r0-r3}
        0x0000007e:    46b6        .F      MOV      lr,r6
        0x00000080:    2601        .&      MOVS     r6,#1
        0x00000082:    4233        3B      TST      r3,r6
        0x00000084:    d000        ..      BEQ      0x88 ; __scatterload_null + 28
        0x00000086:    1afb        ..      SUBS     r3,r7,r3
        0x00000088:    46a2        .F      MOV      r10,r4
        0x0000008a:    46ab        .F      MOV      r11,r5
        0x0000008c:    4333        3C      ORRS     r3,r3,r6
        0x0000008e:    4718        .G      BX       r3
    $d
        0x00000090:    00002f4c    L/..    DCD    12108
        0x00000094:    00002f6c    l/..    DCD    12140
    $t
    !!handler_copy
    __scatterload_copy
        0x00000098:    3a10        .:      SUBS     r2,r2,#0x10
        0x0000009a:    d302        ..      BCC      0xa2 ; __scatterload_copy + 10
        0x0000009c:    c878        x.      LDM      r0!,{r3-r6}
        0x0000009e:    c178        x.      STM      r1!,{r3-r6}
        0x000000a0:    d8fa        ..      BHI      __scatterload_copy ; 0x98
        0x000000a2:    0752        R.      LSLS     r2,r2,#29
        0x000000a4:    d301        ..      BCC      0xaa ; __scatterload_copy + 18
        0x000000a6:    c830        0.      LDM      r0!,{r4,r5}
        0x000000a8:    c130        0.      STM      r1!,{r4,r5}
        0x000000aa:    d501        ..      BPL      0xb0 ; __scatterload_copy + 24
        0x000000ac:    6804        .h      LDR      r4,[r0,#0]
        0x000000ae:    600c        .`      STR      r4,[r1,#0]
        0x000000b0:    4770        pG      BX       lr
        0x000000b2:    0000        ..      MOVS     r0,r0
    !!handler_zi
    __scatterload_zeroinit
        0x000000b4:    2300        .#      MOVS     r3,#0
        0x000000b6:    2400        .$      MOVS     r4,#0
        0x000000b8:    2500        .%      MOVS     r5,#0
        0x000000ba:    2600        .&      MOVS     r6,#0
        0x000000bc:    3a10        .:      SUBS     r2,r2,#0x10
        0x000000be:    d301        ..      BCC      0xc4 ; __scatterload_zeroinit + 16
        0x000000c0:    c178        x.      STM      r1!,{r3-r6}
        0x000000c2:    d8fb        ..      BHI      0xbc ; __scatterload_zeroinit + 8
        0x000000c4:    0752        R.      LSLS     r2,r2,#29
        0x000000c6:    d300        ..      BCC      0xca ; __scatterload_zeroinit + 22
        0x000000c8:    c130        0.      STM      r1!,{r4,r5}
        0x000000ca:    d500        ..      BPL      0xce ; __scatterload_zeroinit + 26
        0x000000cc:    600b        .`      STR      r3,[r1,#0]
        0x000000ce:    4770        pG      BX       lr
    .ARM.Collect$$libinit$$00000000
    __rt_lib_init
        0x000000d0:    b51f        ..      PUSH     {r0-r4,lr}
    .ARM.Collect$$libinit$$00000002
    .ARM.Collect$$libinit$$00000004
    .ARM.Collect$$libinit$$00000005
    __rt_lib_init_fp_1
    __rt_lib_init_heap_2
    __rt_lib_init_preinit_1
        0x000000d2:    9800        ..      LDR      r0,[sp,#0]
        0x000000d4:    9901        ..      LDR      r1,[sp,#4]
        0x000000d6:    f000fa3a    ..:.    BL       _init_alloc ; 0x54e
    .ARM.Collect$$libinit$$0000000A
    .ARM.Collect$$libinit$$0000000C
    .ARM.Collect$$libinit$$0000000E
    .ARM.Collect$$libinit$$00000011
    .ARM.Collect$$libinit$$00000013
    .ARM.Collect$$libinit$$00000015
    .ARM.Collect$$libinit$$00000017
    .ARM.Collect$$libinit$$00000019
    .ARM.Collect$$libinit$$0000001B
    .ARM.Collect$$libinit$$0000001D
    .ARM.Collect$$libinit$$0000001F
    .ARM.Collect$$libinit$$00000021
    .ARM.Collect$$libinit$$00000023
    .ARM.Collect$$libinit$$00000025
    .ARM.Collect$$libinit$$0000002C
    .ARM.Collect$$libinit$$0000002E
    .ARM.Collect$$libinit$$00000030
    .ARM.Collect$$libinit$$00000032
    .ARM.Collect$$libinit$$00000033
    __rt_lib_init_alloca_1
    __rt_lib_init_argv_1
    __rt_lib_init_atexit_1
    __rt_lib_init_clock_1
    __rt_lib_init_cpp_1
    __rt_lib_init_exceptions_1
    __rt_lib_init_fp_trap_1
    __rt_lib_init_getenv_1
    __rt_lib_init_heap_1
    __rt_lib_init_lc_collate_1
    __rt_lib_init_lc_ctype_1
    __rt_lib_init_lc_monetary_1
    __rt_lib_init_lc_numeric_1
    __rt_lib_init_lc_time_1
    __rt_lib_init_rand_1
    __rt_lib_init_return
    __rt_lib_init_signal_1
    __rt_lib_init_stdio_1
    __rt_lib_init_user_alloc_1
        0x000000da:    bd1f        ..      POP      {r0-r4,pc}
    .ARM.Collect$$libshutdown$$00000000
    __rt_lib_shutdown
        0x000000dc:    b510        ..      PUSH     {r4,lr}
    .ARM.Collect$$libshutdown$$00000002
    .ARM.Collect$$libshutdown$$00000004
    .ARM.Collect$$libshutdown$$00000007
    .ARM.Collect$$libshutdown$$0000000A
    .ARM.Collect$$libshutdown$$0000000C
    .ARM.Collect$$libshutdown$$0000000F
    .ARM.Collect$$libshutdown$$00000010
    __rt_lib_shutdown_cpp_1
    __rt_lib_shutdown_fp_trap_1
    __rt_lib_shutdown_heap_1
    __rt_lib_shutdown_return
    __rt_lib_shutdown_signal_1
    __rt_lib_shutdown_stdio_1
    __rt_lib_shutdown_user_alloc_1
        0x000000de:    bd10        ..      POP      {r4,pc}
    .ARM.Collect$$rtentry$$00000000
    .ARM.Collect$$rtentry$$00000002
    .ARM.Collect$$rtentry$$00000004
    __rt_entry
    __rt_entry_presh_1
    __rt_entry_sh
        0x000000e0:    f000fa8f    ....    BL       __semihosting_library_function ; 0x602
        0x000000e4:    4611        .F      MOV      r1,r2
    .ARM.Collect$$rtentry$$00000009
    .ARM.Collect$$rtentry$$0000000A
    __rt_entry_li
    __rt_entry_postsh_1
        0x000000e6:    f7fffff3    ....    BL       __rt_lib_init ; 0xd0
    .ARM.Collect$$rtentry$$0000000C
    .ARM.Collect$$rtentry$$0000000D
    __rt_entry_main
    __rt_entry_postli_1
        0x000000ea:    f001f99f    ....    BL       main ; 0x142c
        0x000000ee:    f000faa7    ....    BL       exit ; 0x640
    .ARM.Collect$$rtexit$$00000000
    __rt_exit
        0x000000f2:    b403        ..      PUSH     {r0,r1}
    .ARM.Collect$$rtexit$$00000002
    .ARM.Collect$$rtexit$$00000003
    __rt_exit_ls
    __rt_exit_prels_1
        0x000000f4:    f7fffff2    ....    BL       __rt_lib_shutdown ; 0xdc
    .ARM.Collect$$rtexit$$00000004
    __rt_exit_exit
        0x000000f8:    bc03        ..      POP      {r0,r1}
        0x000000fa:    f000fad7    ....    BL       _sys_exit ; 0x6ac
        0x000000fe:    0000        ..      MOVS     r0,r0
    .emb_text
    __aeabi_memcpy4
    __aeabi_memcpy8
        0x00000100:    b570        p.      PUSH     {r4-r6,lr}
        0x00000102:    4605        .F      MOV      r5,r0
        0x00000104:    460c        .F      MOV      r4,r1
        0x00000106:    4616        .F      MOV      r6,r2
        0x00000108:    e002        ..      B        0x110 ; __aeabi_memcpy4 + 16
        0x0000010a:    cc0f        ..      LDM      r4!,{r0-r3}
        0x0000010c:    c50f        ..      STM      r5!,{r0-r3}
        0x0000010e:    3e10        .>      SUBS     r6,r6,#0x10
        0x00000110:    2e10        ..      CMP      r6,#0x10
        0x00000112:    d2fa        ..      BCS      0x10a ; __aeabi_memcpy4 + 10
        0x00000114:    2e08        ..      CMP      r6,#8
        0x00000116:    d302        ..      BCC      0x11e ; __aeabi_memcpy4 + 30
        0x00000118:    cc03        ..      LDM      r4!,{r0,r1}
        0x0000011a:    c503        ..      STM      r5!,{r0,r1}
        0x0000011c:    3e08        .>      SUBS     r6,r6,#8
        0x0000011e:    2e04        ..      CMP      r6,#4
        0x00000120:    d307        ..      BCC      0x132 ; __aeabi_memcpy4 + 50
        0x00000122:    cc01        ..      LDM      r4!,{r0}
        0x00000124:    c501        ..      STM      r5!,{r0}
        0x00000126:    1f36        6.      SUBS     r6,r6,#4
        0x00000128:    e003        ..      B        0x132 ; __aeabi_memcpy4 + 50
        0x0000012a:    7821        !x      LDRB     r1,[r4,#0]
        0x0000012c:    7029        )p      STRB     r1,[r5,#0]
        0x0000012e:    1c64        d.      ADDS     r4,r4,#1
        0x00000130:    1c6d        m.      ADDS     r5,r5,#1
        0x00000132:    1e76        v.      SUBS     r6,r6,#1
        0x00000134:    d2f9        ..      BCS      0x12a ; __aeabi_memcpy4 + 42
        0x00000136:    bd70        p.      POP      {r4-r6,pc}
    .text
    .emb_text
    Reset_Handler
    _maybe_terminate_alloc
        0x00000138:    4810        .H      LDR      r0,[pc,#64] ; [0x17c] = 0x55
        0x0000013a:    4680        .F      MOV      r8,r0
        0x0000013c:    46c1        .F      MOV      r9,r8
        0x0000013e:    4700        .G      BX       r0
    SysTick_Handler
        0x00000140:    b500        ..      PUSH     {lr}
        0x00000142:    f000ff95    ....    BL       SysTickHandler ; 0x1070
        0x00000146:    bd00        ..      POP      {pc}
    UART_Handler
        0x00000148:    b507        ..      PUSH     {r0-r2,lr}
        0x0000014a:    f000ff9f    ....    BL       UARTHandle ; 0x108c
        0x0000014e:    bd07        ..      POP      {r0-r2,pc}
    KEY0_Handler
        0x00000150:    b507        ..      PUSH     {r0-r2,lr}
        0x00000152:    f000fad1    ....    BL       KEY0 ; 0x6f8
        0x00000156:    bd07        ..      POP      {r0-r2,pc}
    KEY1_Handler
        0x00000158:    b507        ..      PUSH     {r0-r2,lr}
        0x0000015a:    f000fad3    ....    BL       KEY1 ; 0x704
        0x0000015e:    bd07        ..      POP      {r0-r2,pc}
    KEY2_Handler
        0x00000160:    b507        ..      PUSH     {r0-r2,lr}
        0x00000162:    f000fad5    ....    BL       KEY2 ; 0x710
        0x00000166:    bd07        ..      POP      {r0-r2,pc}
    KEY3_Handler
        0x00000168:    b507        ..      PUSH     {r0-r2,lr}
        0x0000016a:    f000fad7    ....    BL       KEY3 ; 0x71c
        0x0000016e:    bd07        ..      POP      {r0-r2,pc}
    __user_initial_stackheap
        0x00000170:    4803        .H      LDR      r0,[pc,#12] ; [0x180] = 0x20000090
        0x00000172:    4904        .I      LDR      r1,[pc,#16] ; [0x184] = 0x20000890
        0x00000174:    4a04        .J      LDR      r2,[pc,#16] ; [0x188] = 0x20000490
        0x00000176:    4b05        .K      LDR      r3,[pc,#20] ; [0x18c] = 0x20000490
        0x00000178:    4770        pG      BX       lr
    $d
        0x0000017a:    0000        ..      DCW    0
        0x0000017c:    00000055    U...    DCD    85
        0x00000180:    20000090    ...     DCD    536871056
        0x00000184:    20000890    ...     DCD    536873104
        0x00000188:    20000490    ...     DCD    536872080
        0x0000018c:    20000490    ...     DCD    536872080
    $t
    .text
    malloc
        0x00000190:    b570        p.      PUSH     {r4-r6,lr}
        0x00000192:    4606        .F      MOV      r6,r0
        0x00000194:    f000f9be    ....    BL       __rt_heap_descriptor ; 0x514
        0x00000198:    6805        .h      LDR      r5,[r0,#0]
        0x0000019a:    4630        0F      MOV      r0,r6
        0x0000019c:    300b        .0      ADDS     r0,r0,#0xb
        0x0000019e:    08c4        ..      LSRS     r4,r0,#3
        0x000001a0:    00e4        ..      LSLS     r4,r4,#3
        0x000001a2:    42b4        .B      CMP      r4,r6
        0x000001a4:    d801        ..      BHI      0x1aa ; malloc + 26
        0x000001a6:    2000        .       MOVS     r0,#0
        0x000001a8:    bd70        p.      POP      {r4-r6,pc}
        0x000001aa:    6868        hh      LDR      r0,[r5,#4]
        0x000001ac:    462a        *F      MOV      r2,r5
        0x000001ae:    2800        .(      CMP      r0,#0
        0x000001b0:    d018        ..      BEQ      0x1e4 ; malloc + 84
        0x000001b2:    6801        .h      LDR      r1,[r0,#0]
        0x000001b4:    42a1        .B      CMP      r1,r4
        0x000001b6:    d311        ..      BCC      0x1dc ; malloc + 76
        0x000001b8:    460b        .F      MOV      r3,r1
        0x000001ba:    4621        !F      MOV      r1,r4
        0x000001bc:    3108        .1      ADDS     r1,r1,#8
        0x000001be:    428b        .B      CMP      r3,r1
        0x000001c0:    d308        ..      BCC      0x1d4 ; malloc + 68
        0x000001c2:    6843        Ch      LDR      r3,[r0,#4]
        0x000001c4:    1901        ..      ADDS     r1,r0,r4
        0x000001c6:    604b        K`      STR      r3,[r1,#4]
        0x000001c8:    6803        .h      LDR      r3,[r0,#0]
        0x000001ca:    1b1b        ..      SUBS     r3,r3,r4
        0x000001cc:    600b        .`      STR      r3,[r1,#0]
        0x000001ce:    6051        Q`      STR      r1,[r2,#4]
        0x000001d0:    6004        .`      STR      r4,[r0,#0]
        0x000001d2:    e001        ..      B        0x1d8 ; malloc + 72
        0x000001d4:    6841        Ah      LDR      r1,[r0,#4]
        0x000001d6:    6051        Q`      STR      r1,[r2,#4]
        0x000001d8:    1d00        ..      ADDS     r0,r0,#4
        0x000001da:    bd70        p.      POP      {r4-r6,pc}
        0x000001dc:    4602        .F      MOV      r2,r0
        0x000001de:    6840        @h      LDR      r0,[r0,#4]
        0x000001e0:    2800        .(      CMP      r0,#0
        0x000001e2:    d1e6        ..      BNE      0x1b2 ; malloc + 34
        0x000001e4:    4621        !F      MOV      r1,r4
        0x000001e6:    4628        (F      MOV      r0,r5
        0x000001e8:    f000f99c    ....    BL       __Heap_Full ; 0x524
        0x000001ec:    2800        .(      CMP      r0,#0
        0x000001ee:    d1dc        ..      BNE      0x1aa ; malloc + 26
        0x000001f0:    bd70        p.      POP      {r4-r6,pc}
    .text
    free
        0x000001f2:    b570        p.      PUSH     {r4-r6,lr}
        0x000001f4:    4604        .F      MOV      r4,r0
        0x000001f6:    1f05        ..      SUBS     r5,r0,#4
        0x000001f8:    f000f98c    ....    BL       __rt_heap_descriptor ; 0x514
        0x000001fc:    6800        .h      LDR      r0,[r0,#0]
        0x000001fe:    2c00        .,      CMP      r4,#0
        0x00000200:    d01a        ..      BEQ      0x238 ; free + 70
        0x00000202:    6844        Dh      LDR      r4,[r0,#4]
        0x00000204:    e001        ..      B        0x20a ; free + 24
        0x00000206:    4620         F      MOV      r0,r4
        0x00000208:    6864        dh      LDR      r4,[r4,#4]
        0x0000020a:    2c00        .,      CMP      r4,#0
        0x0000020c:    d001        ..      BEQ      0x212 ; free + 32
        0x0000020e:    42ac        .B      CMP      r4,r5
        0x00000210:    d3f9        ..      BCC      0x206 ; free + 20
        0x00000212:    6801        .h      LDR      r1,[r0,#0]
        0x00000214:    180a        ..      ADDS     r2,r1,r0
        0x00000216:    42aa        .B      CMP      r2,r5
        0x00000218:    d104        ..      BNE      0x224 ; free + 50
        0x0000021a:    682a        *h      LDR      r2,[r5,#0]
        0x0000021c:    4605        .F      MOV      r5,r0
        0x0000021e:    1889        ..      ADDS     r1,r1,r2
        0x00000220:    6001        .`      STR      r1,[r0,#0]
        0x00000222:    e000        ..      B        0x226 ; free + 52
        0x00000224:    6045        E`      STR      r5,[r0,#4]
        0x00000226:    6828        (h      LDR      r0,[r5,#0]
        0x00000228:    1941        A.      ADDS     r1,r0,r5
        0x0000022a:    42a1        .B      CMP      r1,r4
        0x0000022c:    d105        ..      BNE      0x23a ; free + 72
        0x0000022e:    6861        ah      LDR      r1,[r4,#4]
        0x00000230:    6069        i`      STR      r1,[r5,#4]
        0x00000232:    6821        !h      LDR      r1,[r4,#0]
        0x00000234:    1840        @.      ADDS     r0,r0,r1
        0x00000236:    6028        (`      STR      r0,[r5,#0]
        0x00000238:    bd70        p.      POP      {r4-r6,pc}
        0x0000023a:    606c        l`      STR      r4,[r5,#4]
        0x0000023c:    bd70        p.      POP      {r4-r6,pc}
    .text
    __aeabi_lmul
    _ll_mul
        0x0000023e:    4343        CC      MULS     r3,r0,r3
        0x00000240:    4351        QC      MULS     r1,r2,r1
        0x00000242:    b530        0.      PUSH     {r4,r5,lr}
        0x00000244:    185c        \.      ADDS     r4,r3,r1
        0x00000246:    0c01        ..      LSRS     r1,r0,#16
        0x00000248:    0c13        ..      LSRS     r3,r2,#16
        0x0000024a:    460d        .F      MOV      r5,r1
        0x0000024c:    b292        ..      UXTH     r2,r2
        0x0000024e:    435d        ]C      MULS     r5,r3,r5
        0x00000250:    b280        ..      UXTH     r0,r0
        0x00000252:    4351        QC      MULS     r1,r2,r1
        0x00000254:    192c        ,.      ADDS     r4,r5,r4
        0x00000256:    4605        .F      MOV      r5,r0
        0x00000258:    4355        UC      MULS     r5,r2,r5
        0x0000025a:    0c0a        ..      LSRS     r2,r1,#16
        0x0000025c:    0409        ..      LSLS     r1,r1,#16
        0x0000025e:    194d        M.      ADDS     r5,r1,r5
        0x00000260:    4162        bA      ADCS     r2,r2,r4
        0x00000262:    4358        XC      MULS     r0,r3,r0
        0x00000264:    0c01        ..      LSRS     r1,r0,#16
        0x00000266:    0400        ..      LSLS     r0,r0,#16
        0x00000268:    1940        @.      ADDS     r0,r0,r5
        0x0000026a:    4151        QA      ADCS     r1,r1,r2
        0x0000026c:    bd30        0.      POP      {r4,r5,pc}
    .text
    __aeabi_uldivmod
    _ll_udiv
        0x0000026e:    b5fe        ..      PUSH     {r1-r7,lr}
        0x00000270:    4605        .F      MOV      r5,r0
        0x00000272:    4610        .F      MOV      r0,r2
        0x00000274:    460c        .F      MOV      r4,r1
        0x00000276:    4318        .C      ORRS     r0,r0,r3
        0x00000278:    d073        s.      BEQ      0x362 ; __aeabi_uldivmod + 244
        0x0000027a:    46ae        .F      MOV      lr,r5
        0x0000027c:    468c        .F      MOV      r12,r1
        0x0000027e:    2000        .       MOVS     r0,#0
        0x00000280:    1aad        ..      SUBS     r5,r5,r2
        0x00000282:    4601        .F      MOV      r1,r0
        0x00000284:    419c        .A      SBCS     r4,r4,r3
        0x00000286:    d367        g.      BCC      0x358 ; __aeabi_uldivmod + 234
        0x00000288:    4666        fF      MOV      r6,r12
        0x0000028a:    2700        .'      MOVS     r7,#0
        0x0000028c:    2401        .$      MOVS     r4,#1
        0x0000028e:    463d        =F      MOV      r5,r7
        0x00000290:    1ab6        ..      SUBS     r6,r6,r2
        0x00000292:    419d        .A      SBCS     r5,r5,r3
        0x00000294:    d302        ..      BCC      0x29c ; __aeabi_uldivmod + 46
        0x00000296:    4613        .F      MOV      r3,r2
        0x00000298:    463a        :F      MOV      r2,r7
        0x0000029a:    2421        !$      MOVS     r4,#0x21
        0x0000029c:    4665        eF      MOV      r5,r12
        0x0000029e:    4676        vF      MOV      r6,lr
        0x000002a0:    042f        /.      LSLS     r7,r5,#16
        0x000002a2:    0c36        6.      LSRS     r6,r6,#16
        0x000002a4:    433e        >C      ORRS     r6,r6,r7
        0x000002a6:    0c2d        -.      LSRS     r5,r5,#16
        0x000002a8:    1ab6        ..      SUBS     r6,r6,r2
        0x000002aa:    419d        .A      SBCS     r5,r5,r3
        0x000002ac:    d304        ..      BCC      0x2b8 ; __aeabi_uldivmod + 74
        0x000002ae:    0c15        ..      LSRS     r5,r2,#16
        0x000002b0:    041b        ..      LSLS     r3,r3,#16
        0x000002b2:    432b        +C      ORRS     r3,r3,r5
        0x000002b4:    0412        ..      LSLS     r2,r2,#16
        0x000002b6:    3410        .4      ADDS     r4,r4,#0x10
        0x000002b8:    4665        eF      MOV      r5,r12
        0x000002ba:    4676        vF      MOV      r6,lr
        0x000002bc:    062f        /.      LSLS     r7,r5,#24
        0x000002be:    0a36        6.      LSRS     r6,r6,#8
        0x000002c0:    433e        >C      ORRS     r6,r6,r7
        0x000002c2:    0a2d        -.      LSRS     r5,r5,#8
        0x000002c4:    1ab6        ..      SUBS     r6,r6,r2
        0x000002c6:    419d        .A      SBCS     r5,r5,r3
        0x000002c8:    d304        ..      BCC      0x2d4 ; __aeabi_uldivmod + 102
        0x000002ca:    0e15        ..      LSRS     r5,r2,#24
        0x000002cc:    021b        ..      LSLS     r3,r3,#8
        0x000002ce:    432b        +C      ORRS     r3,r3,r5
        0x000002d0:    0212        ..      LSLS     r2,r2,#8
        0x000002d2:    3408        .4      ADDS     r4,r4,#8
        0x000002d4:    4665        eF      MOV      r5,r12
        0x000002d6:    4676        vF      MOV      r6,lr
        0x000002d8:    072f        /.      LSLS     r7,r5,#28
        0x000002da:    0936        6.      LSRS     r6,r6,#4
        0x000002dc:    433e        >C      ORRS     r6,r6,r7
        0x000002de:    092d        -.      LSRS     r5,r5,#4
        0x000002e0:    1ab6        ..      SUBS     r6,r6,r2
        0x000002e2:    419d        .A      SBCS     r5,r5,r3
        0x000002e4:    d304        ..      BCC      0x2f0 ; __aeabi_uldivmod + 130
        0x000002e6:    0f15        ..      LSRS     r5,r2,#28
        0x000002e8:    011b        ..      LSLS     r3,r3,#4
        0x000002ea:    432b        +C      ORRS     r3,r3,r5
        0x000002ec:    0112        ..      LSLS     r2,r2,#4
        0x000002ee:    1d24        $.      ADDS     r4,r4,#4
        0x000002f0:    4665        eF      MOV      r5,r12
        0x000002f2:    4676        vF      MOV      r6,lr
        0x000002f4:    07af        ..      LSLS     r7,r5,#30
        0x000002f6:    08b6        ..      LSRS     r6,r6,#2
        0x000002f8:    433e        >C      ORRS     r6,r6,r7
        0x000002fa:    08ad        ..      LSRS     r5,r5,#2
        0x000002fc:    1ab6        ..      SUBS     r6,r6,r2
        0x000002fe:    419d        .A      SBCS     r5,r5,r3
        0x00000300:    d304        ..      BCC      0x30c ; __aeabi_uldivmod + 158
        0x00000302:    0f95        ..      LSRS     r5,r2,#30
        0x00000304:    009b        ..      LSLS     r3,r3,#2
        0x00000306:    432b        +C      ORRS     r3,r3,r5
        0x00000308:    0092        ..      LSLS     r2,r2,#2
        0x0000030a:    1ca4        ..      ADDS     r4,r4,#2
        0x0000030c:    4665        eF      MOV      r5,r12
        0x0000030e:    4676        vF      MOV      r6,lr
        0x00000310:    07ef        ..      LSLS     r7,r5,#31
        0x00000312:    0876        v.      LSRS     r6,r6,#1
        0x00000314:    433e        >C      ORRS     r6,r6,r7
        0x00000316:    086d        m.      LSRS     r5,r5,#1
        0x00000318:    1ab6        ..      SUBS     r6,r6,r2
        0x0000031a:    419d        .A      SBCS     r5,r5,r3
        0x0000031c:    d31a        ..      BCC      0x354 ; __aeabi_uldivmod + 230
        0x0000031e:    1892        ..      ADDS     r2,r2,r2
        0x00000320:    415b        [A      ADCS     r3,r3,r3
        0x00000322:    1c64        d.      ADDS     r4,r4,#1
        0x00000324:    e016        ..      B        0x354 ; __aeabi_uldivmod + 230
        0x00000326:    1800        ..      ADDS     r0,r0,r0
        0x00000328:    4676        vF      MOV      r6,lr
        0x0000032a:    4665        eF      MOV      r5,r12
        0x0000032c:    4149        IA      ADCS     r1,r1,r1
        0x0000032e:    1ab7        ..      SUBS     r7,r6,r2
        0x00000330:    419d        .A      SBCS     r5,r5,r3
        0x00000332:    9101        ..      STR      r1,[sp,#4]
        0x00000334:    9000        ..      STR      r0,[sp,#0]
        0x00000336:    d309        ..      BCC      0x34c ; __aeabi_uldivmod + 222
        0x00000338:    4660        `F      MOV      r0,r12
        0x0000033a:    1ab1        ..      SUBS     r1,r6,r2
        0x0000033c:    4198        .A      SBCS     r0,r0,r3
        0x0000033e:    468e        .F      MOV      lr,r1
        0x00000340:    4684        .F      MOV      r12,r0
        0x00000342:    9800        ..      LDR      r0,[sp,#0]
        0x00000344:    9901        ..      LDR      r1,[sp,#4]
        0x00000346:    2500        .%      MOVS     r5,#0
        0x00000348:    1c40        @.      ADDS     r0,r0,#1
        0x0000034a:    4169        iA      ADCS     r1,r1,r5
        0x0000034c:    07dd        ..      LSLS     r5,r3,#31
        0x0000034e:    0852        R.      LSRS     r2,r2,#1
        0x00000350:    432a        *C      ORRS     r2,r2,r5
        0x00000352:    085b        [.      LSRS     r3,r3,#1
        0x00000354:    1e64        d.      SUBS     r4,r4,#1
        0x00000356:    d5e6        ..      BPL      0x326 ; __aeabi_uldivmod + 184
        0x00000358:    4672        rF      MOV      r2,lr
        0x0000035a:    4663        cF      MOV      r3,r12
        0x0000035c:    b003        ..      ADD      sp,sp,#0xc
        0x0000035e:    bdf0        ..      POP      {r4-r7,pc}
        0x00000360:    e7ff        ..      B        0x362 ; __aeabi_uldivmod + 244
        0x00000362:    2000        .       MOVS     r0,#0
        0x00000364:    4601        .F      MOV      r1,r0
        0x00000366:    46c0        .F      MOV      r8,r8
        0x00000368:    46c0        .F      MOV      r8,r8
        0x0000036a:    462a        *F      MOV      r2,r5
        0x0000036c:    4623        #F      MOV      r3,r4
        0x0000036e:    e7f5        ..      B        0x35c ; __aeabi_uldivmod + 238
    .text
    strlen
        0x00000370:    b530        0.      PUSH     {r4,r5,lr}
        0x00000372:    1c44        D.      ADDS     r4,r0,#1
        0x00000374:    e003        ..      B        0x37e ; strlen + 14
        0x00000376:    7801        .x      LDRB     r1,[r0,#0]
        0x00000378:    1c40        @.      ADDS     r0,r0,#1
        0x0000037a:    2900        .)      CMP      r1,#0
        0x0000037c:    d00d        ..      BEQ      0x39a ; strlen + 42
        0x0000037e:    0781        ..      LSLS     r1,r0,#30
        0x00000380:    d1f9        ..      BNE      0x376 ; strlen + 6
        0x00000382:    4b0b        .K      LDR      r3,[pc,#44] ; [0x3b0] = 0x1010101
        0x00000384:    01dd        ..      LSLS     r5,r3,#7
        0x00000386:    c804        ..      LDM      r0!,{r2}
        0x00000388:    1ad1        ..      SUBS     r1,r2,r3
        0x0000038a:    4391        .C      BICS     r1,r1,r2
        0x0000038c:    4029        )@      ANDS     r1,r1,r5
        0x0000038e:    d0fa        ..      BEQ      0x386 ; strlen + 22
        0x00000390:    1b00        ..      SUBS     r0,r0,r4
        0x00000392:    060a        ..      LSLS     r2,r1,#24
        0x00000394:    d003        ..      BEQ      0x39e ; strlen + 46
        0x00000396:    1ec0        ..      SUBS     r0,r0,#3
        0x00000398:    bd30        0.      POP      {r4,r5,pc}
        0x0000039a:    1b00        ..      SUBS     r0,r0,r4
        0x0000039c:    bd30        0.      POP      {r4,r5,pc}
        0x0000039e:    040a        ..      LSLS     r2,r1,#16
        0x000003a0:    d001        ..      BEQ      0x3a6 ; strlen + 54
        0x000003a2:    1e80        ..      SUBS     r0,r0,#2
        0x000003a4:    bd30        0.      POP      {r4,r5,pc}
        0x000003a6:    0209        ..      LSLS     r1,r1,#8
        0x000003a8:    d0fc        ..      BEQ      0x3a4 ; strlen + 52
        0x000003aa:    1e40        @.      SUBS     r0,r0,#1
        0x000003ac:    bd30        0.      POP      {r4,r5,pc}
    $d
        0x000003ae:    0000        ..      DCW    0
        0x000003b0:    01010101    ....    DCD    16843009
    $t
    .text
    __aeabi_uidiv
    __aeabi_uidivmod
        0x000003b4:    2200        ."      MOVS     r2,#0
        0x000003b6:    0903        ..      LSRS     r3,r0,#4
        0x000003b8:    428b        .B      CMP      r3,r1
        0x000003ba:    d32c        ,.      BCC      0x416 ; __aeabi_idiv + 78
        0x000003bc:    0a03        ..      LSRS     r3,r0,#8
        0x000003be:    428b        .B      CMP      r3,r1
        0x000003c0:    d311        ..      BCC      0x3e6 ; __aeabi_idiv + 30
        0x000003c2:    2300        .#      MOVS     r3,#0
        0x000003c4:    469c        .F      MOV      r12,r3
        0x000003c6:    e04e        N.      B        0x466 ; __aeabi_idiv + 158
    __aeabi_idiv
    __aeabi_idivmod
        0x000003c8:    4603        .F      MOV      r3,r0
        0x000003ca:    430b        .C      ORRS     r3,r3,r1
        0x000003cc:    d43c        <.      BMI      0x448 ; __aeabi_idiv + 128
        0x000003ce:    2200        ."      MOVS     r2,#0
        0x000003d0:    0843        C.      LSRS     r3,r0,#1
        0x000003d2:    428b        .B      CMP      r3,r1
        0x000003d4:    d331        1.      BCC      0x43a ; __aeabi_idiv + 114
        0x000003d6:    0903        ..      LSRS     r3,r0,#4
        0x000003d8:    428b        .B      CMP      r3,r1
        0x000003da:    d31c        ..      BCC      0x416 ; __aeabi_idiv + 78
        0x000003dc:    0a03        ..      LSRS     r3,r0,#8
        0x000003de:    428b        .B      CMP      r3,r1
        0x000003e0:    d301        ..      BCC      0x3e6 ; __aeabi_idiv + 30
        0x000003e2:    4694        .F      MOV      r12,r2
        0x000003e4:    e03f        ?.      B        0x466 ; __aeabi_idiv + 158
        0x000003e6:    09c3        ..      LSRS     r3,r0,#7
        0x000003e8:    428b        .B      CMP      r3,r1
        0x000003ea:    d301        ..      BCC      0x3f0 ; __aeabi_idiv + 40
        0x000003ec:    01cb        ..      LSLS     r3,r1,#7
        0x000003ee:    1ac0        ..      SUBS     r0,r0,r3
        0x000003f0:    4152        RA      ADCS     r2,r2,r2
        0x000003f2:    0983        ..      LSRS     r3,r0,#6
        0x000003f4:    428b        .B      CMP      r3,r1
        0x000003f6:    d301        ..      BCC      0x3fc ; __aeabi_idiv + 52
        0x000003f8:    018b        ..      LSLS     r3,r1,#6
        0x000003fa:    1ac0        ..      SUBS     r0,r0,r3
        0x000003fc:    4152        RA      ADCS     r2,r2,r2
        0x000003fe:    0943        C.      LSRS     r3,r0,#5
        0x00000400:    428b        .B      CMP      r3,r1
        0x00000402:    d301        ..      BCC      0x408 ; __aeabi_idiv + 64
        0x00000404:    014b        K.      LSLS     r3,r1,#5
        0x00000406:    1ac0        ..      SUBS     r0,r0,r3
        0x00000408:    4152        RA      ADCS     r2,r2,r2
        0x0000040a:    0903        ..      LSRS     r3,r0,#4
        0x0000040c:    428b        .B      CMP      r3,r1
        0x0000040e:    d301        ..      BCC      0x414 ; __aeabi_idiv + 76
        0x00000410:    010b        ..      LSLS     r3,r1,#4
        0x00000412:    1ac0        ..      SUBS     r0,r0,r3
        0x00000414:    4152        RA      ADCS     r2,r2,r2
        0x00000416:    08c3        ..      LSRS     r3,r0,#3
        0x00000418:    428b        .B      CMP      r3,r1
        0x0000041a:    d301        ..      BCC      0x420 ; __aeabi_idiv + 88
        0x0000041c:    00cb        ..      LSLS     r3,r1,#3
        0x0000041e:    1ac0        ..      SUBS     r0,r0,r3
        0x00000420:    4152        RA      ADCS     r2,r2,r2
        0x00000422:    0883        ..      LSRS     r3,r0,#2
        0x00000424:    428b        .B      CMP      r3,r1
        0x00000426:    d301        ..      BCC      0x42c ; __aeabi_idiv + 100
        0x00000428:    008b        ..      LSLS     r3,r1,#2
        0x0000042a:    1ac0        ..      SUBS     r0,r0,r3
        0x0000042c:    4152        RA      ADCS     r2,r2,r2
        0x0000042e:    0843        C.      LSRS     r3,r0,#1
        0x00000430:    428b        .B      CMP      r3,r1
        0x00000432:    d301        ..      BCC      0x438 ; __aeabi_idiv + 112
        0x00000434:    004b        K.      LSLS     r3,r1,#1
        0x00000436:    1ac0        ..      SUBS     r0,r0,r3
        0x00000438:    4152        RA      ADCS     r2,r2,r2
        0x0000043a:    1a41        A.      SUBS     r1,r0,r1
        0x0000043c:    d200        ..      BCS      0x440 ; __aeabi_idiv + 120
        0x0000043e:    4601        .F      MOV      r1,r0
        0x00000440:    4152        RA      ADCS     r2,r2,r2
        0x00000442:    4610        .F      MOV      r0,r2
        0x00000444:    4770        pG      BX       lr
        0x00000446:    e05d        ].      B        0x504 ; __aeabi_idiv + 316
        0x00000448:    0fca        ..      LSRS     r2,r1,#31
        0x0000044a:    d000        ..      BEQ      0x44e ; __aeabi_idiv + 134
        0x0000044c:    4249        IB      RSBS     r1,r1,#0
        0x0000044e:    1003        ..      ASRS     r3,r0,#32
        0x00000450:    d300        ..      BCC      0x454 ; __aeabi_idiv + 140
        0x00000452:    4240        @B      RSBS     r0,r0,#0
        0x00000454:    4053        S@      EORS     r3,r3,r2
        0x00000456:    2200        ."      MOVS     r2,#0
        0x00000458:    469c        .F      MOV      r12,r3
        0x0000045a:    0903        ..      LSRS     r3,r0,#4
        0x0000045c:    428b        .B      CMP      r3,r1
        0x0000045e:    d32d        -.      BCC      0x4bc ; __aeabi_idiv + 244
        0x00000460:    0a03        ..      LSRS     r3,r0,#8
        0x00000462:    428b        .B      CMP      r3,r1
        0x00000464:    d312        ..      BCC      0x48c ; __aeabi_idiv + 196
        0x00000466:    22fc        ."      MOVS     r2,#0xfc
        0x00000468:    0189        ..      LSLS     r1,r1,#6
        0x0000046a:    ba12        ..      REV      r2,r2
        0x0000046c:    0a03        ..      LSRS     r3,r0,#8
        0x0000046e:    428b        .B      CMP      r3,r1
        0x00000470:    d30c        ..      BCC      0x48c ; __aeabi_idiv + 196
        0x00000472:    0189        ..      LSLS     r1,r1,#6
        0x00000474:    1192        ..      ASRS     r2,r2,#6
        0x00000476:    428b        .B      CMP      r3,r1
        0x00000478:    d308        ..      BCC      0x48c ; __aeabi_idiv + 196
        0x0000047a:    0189        ..      LSLS     r1,r1,#6
        0x0000047c:    1192        ..      ASRS     r2,r2,#6
        0x0000047e:    428b        .B      CMP      r3,r1
        0x00000480:    d304        ..      BCC      0x48c ; __aeabi_idiv + 196
        0x00000482:    0189        ..      LSLS     r1,r1,#6
        0x00000484:    d03a        :.      BEQ      0x4fc ; __aeabi_idiv + 308
        0x00000486:    1192        ..      ASRS     r2,r2,#6
        0x00000488:    e000        ..      B        0x48c ; __aeabi_idiv + 196
        0x0000048a:    0989        ..      LSRS     r1,r1,#6
        0x0000048c:    09c3        ..      LSRS     r3,r0,#7
        0x0000048e:    428b        .B      CMP      r3,r1
        0x00000490:    d301        ..      BCC      0x496 ; __aeabi_idiv + 206
        0x00000492:    01cb        ..      LSLS     r3,r1,#7
        0x00000494:    1ac0        ..      SUBS     r0,r0,r3
        0x00000496:    4152        RA      ADCS     r2,r2,r2
        0x00000498:    0983        ..      LSRS     r3,r0,#6
        0x0000049a:    428b        .B      CMP      r3,r1
        0x0000049c:    d301        ..      BCC      0x4a2 ; __aeabi_idiv + 218
        0x0000049e:    018b        ..      LSLS     r3,r1,#6
        0x000004a0:    1ac0        ..      SUBS     r0,r0,r3
        0x000004a2:    4152        RA      ADCS     r2,r2,r2
        0x000004a4:    0943        C.      LSRS     r3,r0,#5
        0x000004a6:    428b        .B      CMP      r3,r1
        0x000004a8:    d301        ..      BCC      0x4ae ; __aeabi_idiv + 230
        0x000004aa:    014b        K.      LSLS     r3,r1,#5
        0x000004ac:    1ac0        ..      SUBS     r0,r0,r3
        0x000004ae:    4152        RA      ADCS     r2,r2,r2
        0x000004b0:    0903        ..      LSRS     r3,r0,#4
        0x000004b2:    428b        .B      CMP      r3,r1
        0x000004b4:    d301        ..      BCC      0x4ba ; __aeabi_idiv + 242
        0x000004b6:    010b        ..      LSLS     r3,r1,#4
        0x000004b8:    1ac0        ..      SUBS     r0,r0,r3
        0x000004ba:    4152        RA      ADCS     r2,r2,r2
        0x000004bc:    08c3        ..      LSRS     r3,r0,#3
        0x000004be:    428b        .B      CMP      r3,r1
        0x000004c0:    d301        ..      BCC      0x4c6 ; __aeabi_idiv + 254
        0x000004c2:    00cb        ..      LSLS     r3,r1,#3
        0x000004c4:    1ac0        ..      SUBS     r0,r0,r3
        0x000004c6:    4152        RA      ADCS     r2,r2,r2
        0x000004c8:    0883        ..      LSRS     r3,r0,#2
        0x000004ca:    428b        .B      CMP      r3,r1
        0x000004cc:    d301        ..      BCC      0x4d2 ; __aeabi_idiv + 266
        0x000004ce:    008b        ..      LSLS     r3,r1,#2
        0x000004d0:    1ac0        ..      SUBS     r0,r0,r3
        0x000004d2:    4152        RA      ADCS     r2,r2,r2
        0x000004d4:    d2d9        ..      BCS      0x48a ; __aeabi_idiv + 194
        0x000004d6:    0843        C.      LSRS     r3,r0,#1
        0x000004d8:    428b        .B      CMP      r3,r1
        0x000004da:    d301        ..      BCC      0x4e0 ; __aeabi_idiv + 280
        0x000004dc:    004b        K.      LSLS     r3,r1,#1
        0x000004de:    1ac0        ..      SUBS     r0,r0,r3
        0x000004e0:    4152        RA      ADCS     r2,r2,r2
        0x000004e2:    1a41        A.      SUBS     r1,r0,r1
        0x000004e4:    d200        ..      BCS      0x4e8 ; __aeabi_idiv + 288
        0x000004e6:    4601        .F      MOV      r1,r0
        0x000004e8:    4663        cF      MOV      r3,r12
        0x000004ea:    4152        RA      ADCS     r2,r2,r2
        0x000004ec:    105b        [.      ASRS     r3,r3,#1
        0x000004ee:    4610        .F      MOV      r0,r2
        0x000004f0:    d301        ..      BCC      0x4f6 ; __aeabi_idiv + 302
        0x000004f2:    4240        @B      RSBS     r0,r0,#0
        0x000004f4:    2b00        .+      CMP      r3,#0
        0x000004f6:    d500        ..      BPL      0x4fa ; __aeabi_idiv + 306
        0x000004f8:    4249        IB      RSBS     r1,r1,#0
        0x000004fa:    4770        pG      BX       lr
        0x000004fc:    4663        cF      MOV      r3,r12
        0x000004fe:    105b        [.      ASRS     r3,r3,#1
        0x00000500:    d300        ..      BCC      0x504 ; __aeabi_idiv + 316
        0x00000502:    4240        @B      RSBS     r0,r0,#0
        0x00000504:    b501        ..      PUSH     {r0,lr}
        0x00000506:    2000        .       MOVS     r0,#0
        0x00000508:    46c0        .F      MOV      r8,r8
        0x0000050a:    46c0        .F      MOV      r8,r8
        0x0000050c:    bd02        ..      POP      {r1,pc}
    .text
    __use_two_region_memory
        0x0000050e:    4770        pG      BX       lr
    __rt_heap_escrow
        0x00000510:    4770        pG      BX       lr
    __rt_heap_expand
        0x00000512:    4770        pG      BX       lr
    .text
    __rt_heap_descriptor
        0x00000514:    4800        .H      LDR      r0,[pc,#0] ; [0x518] = 0x2000002c
        0x00000516:    4770        pG      BX       lr
    $d
        0x00000518:    2000002c    ,..     DCD    536870956
    $t
    .text
    __use_no_heap
        0x0000051c:    4770        pG      BX       lr
    __heap$guard
        0x0000051e:    4770        pG      BX       lr
    .text
    _terminate_user_alloc
        0x00000520:    4770        pG      BX       lr
    _init_user_alloc
        0x00000522:    4770        pG      BX       lr
    __Heap_Full
        0x00000524:    b538        8.      PUSH     {r3-r5,lr}
        0x00000526:    4604        .F      MOV      r4,r0
        0x00000528:    460a        .F      MOV      r2,r1
        0x0000052a:    2000        .       MOVS     r0,#0
        0x0000052c:    4669        iF      MOV      r1,sp
        0x0000052e:    46c0        .F      MOV      r8,r8
        0x00000530:    46c0        .F      MOV      r8,r8
        0x00000532:    2800        .(      CMP      r0,#0
        0x00000534:    d005        ..      BEQ      0x542 ; __Heap_Full + 30
        0x00000536:    4602        .F      MOV      r2,r0
        0x00000538:    4620         F      MOV      r0,r4
        0x0000053a:    9900        ..      LDR      r1,[sp,#0]
        0x0000053c:    f000f840    ..@.    BL       __Heap_ProvideMemory ; 0x5c0
        0x00000540:    2001        .       MOVS     r0,#1
        0x00000542:    bd38        8.      POP      {r3-r5,pc}
    __Heap_Broken
        0x00000544:    b510        ..      PUSH     {r4,lr}
        0x00000546:    2001        .       MOVS     r0,#1
        0x00000548:    f000f854    ..T.    BL       __rt_SIGRTMEM ; 0x5f4
        0x0000054c:    bd10        ..      POP      {r4,pc}
    _init_alloc
        0x0000054e:    b5f8        ..      PUSH     {r3-r7,lr}
        0x00000550:    46c0        .F      MOV      r8,r8
        0x00000552:    46c0        .F      MOV      r8,r8
        0x00000554:    4605        .F      MOV      r5,r0
        0x00000556:    2000        .       MOVS     r0,#0
        0x00000558:    460c        .F      MOV      r4,r1
        0x0000055a:    2010        .       MOVS     r0,#0x10
        0x0000055c:    46c0        .F      MOV      r8,r8
        0x0000055e:    4606        .F      MOV      r6,r0
        0x00000560:    19a8        ..      ADDS     r0,r5,r6
        0x00000562:    42a0        .B      CMP      r0,r4
        0x00000564:    d90d        ..      BLS      0x582 ; _init_alloc + 52
        0x00000566:    4632        2F      MOV      r2,r6
        0x00000568:    4669        iF      MOV      r1,sp
        0x0000056a:    2000        .       MOVS     r0,#0
        0x0000056c:    46c0        .F      MOV      r8,r8
        0x0000056e:    46c0        .F      MOV      r8,r8
        0x00000570:    0007        ..      MOVS     r7,r0
        0x00000572:    d101        ..      BNE      0x578 ; _init_alloc + 42
        0x00000574:    f000f83e    ..>.    BL       __rt_SIGRTMEM ; 0x5f4
        0x00000578:    9800        ..      LDR      r0,[sp,#0]
        0x0000057a:    42a0        .B      CMP      r0,r4
        0x0000057c:    d000        ..      BEQ      0x580 ; _init_alloc + 50
        0x0000057e:    4605        .F      MOV      r5,r0
        0x00000580:    19c4        ..      ADDS     r4,r0,r7
        0x00000582:    f7ffffc7    ....    BL       __rt_heap_descriptor ; 0x514
        0x00000586:    1df6        ..      ADDS     r6,r6,#7
        0x00000588:    4607        .F      MOV      r7,r0
        0x0000058a:    6005        .`      STR      r5,[r0,#0]
        0x0000058c:    08f0        ..      LSRS     r0,r6,#3
        0x0000058e:    00c0        ..      LSLS     r0,r0,#3
        0x00000590:    1946        F.      ADDS     r6,r0,r5
        0x00000592:    4628        (F      MOV      r0,r5
        0x00000594:    f000f808    ....    BL       __Heap_Initialize ; 0x5a8
        0x00000598:    42b4        .B      CMP      r4,r6
        0x0000059a:    d004        ..      BEQ      0x5a6 ; _init_alloc + 88
        0x0000059c:    4631        1F      MOV      r1,r6
        0x0000059e:    6838        8h      LDR      r0,[r7,#0]
        0x000005a0:    1ba2        ..      SUBS     r2,r4,r6
        0x000005a2:    f000f80d    ....    BL       __Heap_ProvideMemory ; 0x5c0
        0x000005a6:    bdf8        ..      POP      {r3-r7,pc}
    .text
    __Heap_Initialize
        0x000005a8:    2100        .!      MOVS     r1,#0
        0x000005aa:    6001        .`      STR      r1,[r0,#0]
        0x000005ac:    6041        A`      STR      r1,[r0,#4]
        0x000005ae:    6080        .`      STR      r0,[r0,#8]
        0x000005b0:    4770        pG      BX       lr
    __Heap_DescSize
        0x000005b2:    2010        .       MOVS     r0,#0x10
        0x000005b4:    4770        pG      BX       lr
        0x000005b6:    0000        ..      MOVS     r0,r0
    .text
    __user_libspace
    __user_perproc_libspace
    __user_perthread_libspace
        0x000005b8:    4800        .H      LDR      r0,[pc,#0] ; [0x5bc] = 0x20000024
        0x000005ba:    4770        pG      BX       lr
    $d
        0x000005bc:    20000024    $..     DCD    536870948
    $t
    .text
    __Heap_ProvideMemory
        0x000005c0:    b510        ..      PUSH     {r4,lr}
        0x000005c2:    4603        .F      MOV      r3,r0
        0x000005c4:    6840        @h      LDR      r0,[r0,#4]
        0x000005c6:    e001        ..      B        0x5cc ; __Heap_ProvideMemory + 12
        0x000005c8:    4603        .F      MOV      r3,r0
        0x000005ca:    6840        @h      LDR      r0,[r0,#4]
        0x000005cc:    2800        .(      CMP      r0,#0
        0x000005ce:    d001        ..      BEQ      0x5d4 ; __Heap_ProvideMemory + 20
        0x000005d0:    4288        .B      CMP      r0,r1
        0x000005d2:    d3f9        ..      BCC      0x5c8 ; __Heap_ProvideMemory + 8
        0x000005d4:    6818        .h      LDR      r0,[r3,#0]
        0x000005d6:    18c3        ..      ADDS     r3,r0,r3
        0x000005d8:    428b        .B      CMP      r3,r1
        0x000005da:    d006        ..      BEQ      0x5ea ; __Heap_ProvideMemory + 42
        0x000005dc:    1ccb        ..      ADDS     r3,r1,#3
        0x000005de:    08d8        ..      LSRS     r0,r3,#3
        0x000005e0:    00c0        ..      LSLS     r0,r0,#3
        0x000005e2:    1d00        ..      ADDS     r0,r0,#4
        0x000005e4:    1a41        A.      SUBS     r1,r0,r1
        0x000005e6:    1a52        R.      SUBS     r2,r2,r1
        0x000005e8:    4601        .F      MOV      r1,r0
        0x000005ea:    1d08        ..      ADDS     r0,r1,#4
        0x000005ec:    600a        .`      STR      r2,[r1,#0]
        0x000005ee:    f7fffe00    ....    BL       free ; 0x1f2
        0x000005f2:    bd10        ..      POP      {r4,pc}
    .text
    __rt_SIGRTMEM
        0x000005f4:    b510        ..      PUSH     {r4,lr}
        0x000005f6:    f000f831    ..1.    BL       __rt_SIGRTMEM_inner ; 0x65c
        0x000005fa:    f000f829    ..).    BL       __sig_exit ; 0x650
        0x000005fe:    bd10        ..      POP      {r4,pc}
    .text
    __I$use$semihosting
    __use_no_semihosting_swi
        0x00000600:    4770        pG      BX       lr
    .text
    .text
    __semihosting_library_function
    __user_setup_stackheap
        0x00000602:    4675        uF      MOV      r5,lr
        0x00000604:    f7ffffd8    ....    BL       __user_libspace ; 0x5b8
        0x00000608:    46ae        .F      MOV      lr,r5
        0x0000060a:    0005        ..      MOVS     r5,r0
        0x0000060c:    4669        iF      MOV      r1,sp
        0x0000060e:    4653        SF      MOV      r3,r10
        0x00000610:    08c0        ..      LSRS     r0,r0,#3
        0x00000612:    00c0        ..      LSLS     r0,r0,#3
        0x00000614:    4685        .F      MOV      sp,r0
        0x00000616:    b018        ..      ADD      sp,sp,#0x60
        0x00000618:    b520         .      PUSH     {r5,lr}
        0x0000061a:    f7fffda9    ....    BL       __user_initial_stackheap ; 0x170
        0x0000061e:    bc60        `.      POP      {r5,r6}
        0x00000620:    2700        .'      MOVS     r7,#0
        0x00000622:    0849        I.      LSRS     r1,r1,#1
        0x00000624:    46b6        .F      MOV      lr,r6
        0x00000626:    2600        .&      MOVS     r6,#0
        0x00000628:    c5c0        ..      STM      r5!,{r6,r7}
        0x0000062a:    c5c0        ..      STM      r5!,{r6,r7}
        0x0000062c:    c5c0        ..      STM      r5!,{r6,r7}
        0x0000062e:    c5c0        ..      STM      r5!,{r6,r7}
        0x00000630:    c5c0        ..      STM      r5!,{r6,r7}
        0x00000632:    c5c0        ..      STM      r5!,{r6,r7}
        0x00000634:    c5c0        ..      STM      r5!,{r6,r7}
        0x00000636:    c5c0        ..      STM      r5!,{r6,r7}
        0x00000638:    3d40        @=      SUBS     r5,r5,#0x40
        0x0000063a:    0049        I.      LSLS     r1,r1,#1
        0x0000063c:    468d        .F      MOV      sp,r1
        0x0000063e:    4770        pG      BX       lr
    .text
    exit
        0x00000640:    b510        ..      PUSH     {r4,lr}
        0x00000642:    4604        .F      MOV      r4,r0
        0x00000644:    46c0        .F      MOV      r8,r8
        0x00000646:    46c0        .F      MOV      r8,r8
        0x00000648:    4620         F      MOV      r0,r4
        0x0000064a:    f7fffd52    ..R.    BL       __rt_exit ; 0xf2
        0x0000064e:    bd10        ..      POP      {r4,pc}
    .text
    __sig_exit
        0x00000650:    b510        ..      PUSH     {r4,lr}
        0x00000652:    2800        .(      CMP      r0,#0
        0x00000654:    d001        ..      BEQ      0x65a ; __sig_exit + 10
        0x00000656:    f000f829    ..).    BL       _sys_exit ; 0x6ac
        0x0000065a:    bd10        ..      POP      {r4,pc}
    .text
    __rt_SIGRTMEM_inner
        0x0000065c:    b510        ..      PUSH     {r4,lr}
        0x0000065e:    2801        .(      CMP      r0,#1
        0x00000660:    d005        ..      BEQ      0x66e ; __rt_SIGRTMEM_inner + 18
        0x00000662:    2100        .!      MOVS     r1,#0
        0x00000664:    a003        ..      ADR      r0,{pc}+0x10 ; 0x674
        0x00000666:    f000f827    ..'.    BL       __default_signal_display ; 0x6b8
        0x0000066a:    2001        .       MOVS     r0,#1
        0x0000066c:    bd10        ..      POP      {r4,pc}
        0x0000066e:    a109        ..      ADR      r1,{pc}+0x26 ; 0x694
        0x00000670:    e7f8        ..      B        0x664 ; __rt_SIGRTMEM_inner + 8
    $d
        0x00000672:    0000        ..      DCW    0
        0x00000674:    52474953    SIGR    DCD    1380403539
        0x00000678:    4d454d54    TMEM    DCD    1296387412
        0x0000067c:    754f203a    : Ou    DCD    1968119866
        0x00000680:    666f2074    t of    DCD    1718558836
        0x00000684:    61656820     hea    DCD    1634035744
        0x00000688:    656d2070    p me    DCD    1701650544
        0x0000068c:    79726f6d    mory    DCD    2037542765
        0x00000690:    00000000    ....    DCD    0
        0x00000694:    6548203a    : He    DCD    1699225658
        0x00000698:    6d207061    ap m    DCD    1830842465
        0x0000069c:    726f6d65    emor    DCD    1919905125
        0x000006a0:    6f632079    y co    DCD    1868767353
        0x000006a4:    70757272    rrup    DCD    1886745202
        0x000006a8:    00646574    ted.    DCD    6579572
    $t
    .text
    _sys_exit
        0x000006ac:    4901        .I      LDR      r1,[pc,#4] ; [0x6b4] = 0x20026
        0x000006ae:    2018        .       MOVS     r0,#0x18
        0x000006b0:    beab        ..      BKPT     #0xab
        0x000006b2:    e7fe        ..      B        0x6b2 ; _sys_exit + 6
    $d
        0x000006b4:    00020026    &...    DCD    131110
    $t
    .text
    __default_signal_display
        0x000006b8:    b570        p.      PUSH     {r4-r6,lr}
        0x000006ba:    4605        .F      MOV      r5,r0
        0x000006bc:    460c        .F      MOV      r4,r1
        0x000006be:    200a        .       MOVS     r0,#0xa
        0x000006c0:    e000        ..      B        0x6c4 ; __default_signal_display + 12
        0x000006c2:    1c6d        m.      ADDS     r5,r5,#1
        0x000006c4:    f000f812    ....    BL       _ttywrch ; 0x6ec
        0x000006c8:    2d00        .-      CMP      r5,#0
        0x000006ca:    d006        ..      BEQ      0x6da ; __default_signal_display + 34
        0x000006cc:    7828        (x      LDRB     r0,[r5,#0]
        0x000006ce:    2800        .(      CMP      r0,#0
        0x000006d0:    d1f7        ..      BNE      0x6c2 ; __default_signal_display + 10
        0x000006d2:    e002        ..      B        0x6da ; __default_signal_display + 34
        0x000006d4:    1c64        d.      ADDS     r4,r4,#1
        0x000006d6:    f000f809    ....    BL       _ttywrch ; 0x6ec
        0x000006da:    2c00        .,      CMP      r4,#0
        0x000006dc:    d002        ..      BEQ      0x6e4 ; __default_signal_display + 44
        0x000006de:    7820         x      LDRB     r0,[r4,#0]
        0x000006e0:    2800        .(      CMP      r0,#0
        0x000006e2:    d1f7        ..      BNE      0x6d4 ; __default_signal_display + 28
        0x000006e4:    200a        .       MOVS     r0,#0xa
        0x000006e6:    f000f801    ....    BL       _ttywrch ; 0x6ec
        0x000006ea:    bd70        p.      POP      {r4-r6,pc}
    .text
    _ttywrch
        0x000006ec:    b508        ..      PUSH     {r3,lr}
        0x000006ee:    4669        iF      MOV      r1,sp
        0x000006f0:    7008        .p      STRB     r0,[r1,#0]
        0x000006f2:    2003        .       MOVS     r0,#3
        0x000006f4:    beab        ..      BKPT     #0xab
        0x000006f6:    bd08        ..      POP      {r3,pc}
    i.KEY0
    KEY0
        0x000006f8:    4901        .I      LDR      r1,[pc,#4] ; [0x700] = 0x20000004
        0x000006fa:    2001        .       MOVS     r0,#1
        0x000006fc:    60c8        .`      STR      r0,[r1,#0xc]
        0x000006fe:    4770        pG      BX       lr
    $d
        0x00000700:    20000004    ...     DCD    536870916
    $t
    i.KEY1
    KEY1
        0x00000704:    4901        .I      LDR      r1,[pc,#4] ; [0x70c] = 0x20000004
        0x00000706:    2001        .       MOVS     r0,#1
        0x00000708:    6088        .`      STR      r0,[r1,#8]
        0x0000070a:    4770        pG      BX       lr
    $d
        0x0000070c:    20000004    ...     DCD    536870916
    $t
    i.KEY2
    KEY2
        0x00000710:    4901        .I      LDR      r1,[pc,#4] ; [0x718] = 0x20000004
        0x00000712:    2001        .       MOVS     r0,#1
        0x00000714:    6048        H`      STR      r0,[r1,#4]
        0x00000716:    4770        pG      BX       lr
    $d
        0x00000718:    20000004    ...     DCD    536870916
    $t
    i.KEY3
    KEY3
        0x0000071c:    4901        .I      LDR      r1,[pc,#4] ; [0x724] = 0x20000004
        0x0000071e:    2001        .       MOVS     r0,#1
        0x00000720:    6008        .`      STR      r0,[r1,#0]
        0x00000722:    4770        pG      BX       lr
    $d
        0x00000724:    20000004    ...     DCD    536870916
    $t
    i.LCD_Clear
    LCD_Clear
        0x00000728:    b5f1        ..      PUSH     {r0,r4-r7,lr}
        0x0000072a:    4c15        .L      LDR      r4,[pc,#84] ; [0x780] = 0x20000014
        0x0000072c:    4915        .I      LDR      r1,[pc,#84] ; [0x784] = 0x6804
        0x0000072e:    8820         .      LDRH     r0,[r4,#0]
        0x00000730:    8866        f.      LDRH     r6,[r4,#2]
        0x00000732:    2500        .%      MOVS     r5,#0
        0x00000734:    4346        FC      MULS     r6,r0,r6
        0x00000736:    88a0        ..      LDRH     r0,[r4,#4]
        0x00000738:    4288        .B      CMP      r0,r1
        0x0000073a:    d102        ..      BNE      0x742 ; LCD_Clear + 26
        0x0000073c:    79a0        .y      LDRB     r0,[r4,#6]
        0x0000073e:    2801        .(      CMP      r0,#1
        0x00000740:    d006        ..      BEQ      0x750 ; LCD_Clear + 40
        0x00000742:    2100        .!      MOVS     r1,#0
        0x00000744:    4608        .F      MOV      r0,r1
        0x00000746:    f000fb0d    ....    BL       LCD_SetCursor ; 0xd64
        0x0000074a:    f000fc1d    ....    BL       LCD_WriteRAM_Prepare ; 0xf88
        0x0000074e:    e013        ..      B        0x778 ; LCD_Clear + 80
        0x00000750:    2000        .       MOVS     r0,#0
        0x00000752:    71a0        .q      STRB     r0,[r4,#6]
        0x00000754:    272a        *'      MOVS     r7,#0x2a
        0x00000756:    8167        g.      STRH     r7,[r4,#0xa]
        0x00000758:    202b        +       MOVS     r0,#0x2b
        0x0000075a:    81a0        ..      STRH     r0,[r4,#0xc]
        0x0000075c:    2100        .!      MOVS     r1,#0
        0x0000075e:    4608        .F      MOV      r0,r1
        0x00000760:    f000fb00    ....    BL       LCD_SetCursor ; 0xd64
        0x00000764:    2001        .       MOVS     r0,#1
        0x00000766:    71a0        .q      STRB     r0,[r4,#6]
        0x00000768:    202b        +       MOVS     r0,#0x2b
        0x0000076a:    8160        `.      STRH     r0,[r4,#0xa]
        0x0000076c:    81a7        ..      STRH     r7,[r4,#0xc]
        0x0000076e:    e7ec        ..      B        0x74a ; LCD_Clear + 34
        0x00000770:    9800        ..      LDR      r0,[sp,#0]
        0x00000772:    f000fbdd    ....    BL       LCD_WR_DATA ; 0xf30
        0x00000776:    1c6d        m.      ADDS     r5,r5,#1
        0x00000778:    42b5        .B      CMP      r5,r6
        0x0000077a:    d3f9        ..      BCC      0x770 ; LCD_Clear + 72
        0x0000077c:    bdf8        ..      POP      {r3-r7,pc}
    $d
        0x0000077e:    0000        ..      DCW    0
        0x00000780:    20000014    ...     DCD    536870932
        0x00000784:    00006804    .h..    DCD    26628
    $t
    i.LCD_Color_Fill
    LCD_Color_Fill
        0x00000788:    b5ff        ..      PUSH     {r0-r7,lr}
        0x0000078a:    b081        ..      SUB      sp,sp,#4
        0x0000078c:    9801        ..      LDR      r0,[sp,#4]
        0x0000078e:    1a10        ..      SUBS     r0,r2,r0
        0x00000790:    1c40        @.      ADDS     r0,r0,#1
        0x00000792:    b286        ..      UXTH     r6,r0
        0x00000794:    9802        ..      LDR      r0,[sp,#8]
        0x00000796:    1a18        ..      SUBS     r0,r3,r0
        0x00000798:    1c40        @.      ADDS     r0,r0,#1
        0x0000079a:    b287        ..      UXTH     r7,r0
        0x0000079c:    2400        .$      MOVS     r4,#0
        0x0000079e:    e019        ..      B        0x7d4 ; LCD_Color_Fill + 76
        0x000007a0:    9802        ..      LDR      r0,[sp,#8]
        0x000007a2:    1900        ..      ADDS     r0,r0,r4
        0x000007a4:    b281        ..      UXTH     r1,r0
        0x000007a6:    9801        ..      LDR      r0,[sp,#4]
        0x000007a8:    f000fadc    ....    BL       LCD_SetCursor ; 0xd64
        0x000007ac:    f000fbec    ....    BL       LCD_WriteRAM_Prepare ; 0xf88
        0x000007b0:    2500        .%      MOVS     r5,#0
        0x000007b2:    4620         F      MOV      r0,r4
        0x000007b4:    4370        pC      MULS     r0,r6,r0
        0x000007b6:    9000        ..      STR      r0,[sp,#0]
        0x000007b8:    e008        ..      B        0x7cc ; LCD_Color_Fill + 68
        0x000007ba:    9800        ..      LDR      r0,[sp,#0]
        0x000007bc:    1940        @.      ADDS     r0,r0,r5
        0x000007be:    0041        A.      LSLS     r1,r0,#1
        0x000007c0:    980a        ..      LDR      r0,[sp,#0x28]
        0x000007c2:    5a40        @Z      LDRH     r0,[r0,r1]
        0x000007c4:    f000fbb4    ....    BL       LCD_WR_DATA ; 0xf30
        0x000007c8:    1c6d        m.      ADDS     r5,r5,#1
        0x000007ca:    b2ad        ..      UXTH     r5,r5
        0x000007cc:    42b5        .B      CMP      r5,r6
        0x000007ce:    d3f4        ..      BCC      0x7ba ; LCD_Color_Fill + 50
        0x000007d0:    1c64        d.      ADDS     r4,r4,#1
        0x000007d2:    b2a4        ..      UXTH     r4,r4
        0x000007d4:    42bc        .B      CMP      r4,r7
        0x000007d6:    d3e3        ..      BCC      0x7a0 ; LCD_Color_Fill + 24
        0x000007d8:    b005        ..      ADD      sp,sp,#0x14
        0x000007da:    bdf0        ..      POP      {r4-r7,pc}
    i.LCD_Display_Dir
    LCD_Display_Dir
        0x000007dc:    b570        p.      PUSH     {r4-r6,lr}
        0x000007de:    22ff        ."      MOVS     r2,#0xff
        0x000007e0:    23f0        .#      MOVS     r3,#0xf0
        0x000007e2:    242c        ,$      MOVS     r4,#0x2c
        0x000007e4:    252a        *%      MOVS     r5,#0x2a
        0x000007e6:    262b        +&      MOVS     r6,#0x2b
        0x000007e8:    3241        A2      ADDS     r2,r2,#0x41
        0x000007ea:    4910        .I      LDR      r1,[pc,#64] ; [0x82c] = 0x20000014
        0x000007ec:    2800        .(      CMP      r0,#0
        0x000007ee:    d00a        ..      BEQ      0x806 ; LCD_Display_Dir + 42
        0x000007f0:    2001        .       MOVS     r0,#1
        0x000007f2:    7188        .q      STRB     r0,[r1,#6]
        0x000007f4:    800a        ..      STRH     r2,[r1,#0]
        0x000007f6:    804b        K.      STRH     r3,[r1,#2]
        0x000007f8:    810c        ..      STRH     r4,[r1,#8]
        0x000007fa:    814d        M.      STRH     r5,[r1,#0xa]
        0x000007fc:    818e        ..      STRH     r6,[r1,#0xc]
        0x000007fe:    2000        .       MOVS     r0,#0
        0x00000800:    f000f9a4    ....    BL       LCD_Scan_Dir ; 0xb4c
        0x00000804:    bd70        p.      POP      {r4-r6,pc}
        0x00000806:    2000        .       MOVS     r0,#0
        0x00000808:    7188        .q      STRB     r0,[r1,#6]
        0x0000080a:    800b        ..      STRH     r3,[r1,#0]
        0x0000080c:    804a        J.      STRH     r2,[r1,#2]
        0x0000080e:    810c        ..      STRH     r4,[r1,#8]
        0x00000810:    814d        M.      STRH     r5,[r1,#0xa]
        0x00000812:    818e        ..      STRH     r6,[r1,#0xc]
        0x00000814:    8888        ..      LDRH     r0,[r1,#4]
        0x00000816:    4b06        .K      LDR      r3,[pc,#24] ; [0x830] = 0x6804
        0x00000818:    4298        .B      CMP      r0,r3
        0x0000081a:    d002        ..      BEQ      0x822 ; LCD_Display_Dir + 70
        0x0000081c:    4b05        .K      LDR      r3,[pc,#20] ; [0x834] = 0x5310
        0x0000081e:    4298        .B      CMP      r0,r3
        0x00000820:    d1ed        ..      BNE      0x7fe ; LCD_Display_Dir + 34
        0x00000822:    20ff        .       MOVS     r0,#0xff
        0x00000824:    800a        ..      STRH     r2,[r1,#0]
        0x00000826:    30e1        .0      ADDS     r0,r0,#0xe1
        0x00000828:    8048        H.      STRH     r0,[r1,#2]
        0x0000082a:    e7e8        ..      B        0x7fe ; LCD_Display_Dir + 34
    $d
        0x0000082c:    20000014    ...     DCD    536870932
        0x00000830:    00006804    .h..    DCD    26628
        0x00000834:    00005310    .S..    DCD    21264
    $t
    i.LCD_Fast_DrawPoint
    LCD_Fast_DrawPoint
        0x00000838:    b5f8        ..      PUSH     {r3-r7,lr}
        0x0000083a:    4c12        .L      LDR      r4,[pc,#72] ; [0x884] = 0x20000014
        0x0000083c:    4607        .F      MOV      r7,r0
        0x0000083e:    4616        .F      MOV      r6,r2
        0x00000840:    460d        .F      MOV      r5,r1
        0x00000842:    8960        `.      LDRH     r0,[r4,#0xa]
        0x00000844:    f000fb8a    ....    BL       LCD_WR_REG ; 0xf5c
        0x00000848:    0a38        8.      LSRS     r0,r7,#8
        0x0000084a:    f000fb71    ..q.    BL       LCD_WR_DATA ; 0xf30
        0x0000084e:    b2f8        ..      UXTB     r0,r7
        0x00000850:    f000fb6e    ..n.    BL       LCD_WR_DATA ; 0xf30
        0x00000854:    89a0        ..      LDRH     r0,[r4,#0xc]
        0x00000856:    f000fb81    ....    BL       LCD_WR_REG ; 0xf5c
        0x0000085a:    0a28        (.      LSRS     r0,r5,#8
        0x0000085c:    f000fb68    ..h.    BL       LCD_WR_DATA ; 0xf30
        0x00000860:    b2e8        ..      UXTB     r0,r5
        0x00000862:    f000fb65    ..e.    BL       LCD_WR_DATA ; 0xf30
        0x00000866:    4b08        .K      LDR      r3,[pc,#32] ; [0x888] = 0x40050000
        0x00000868:    2500        .%      MOVS     r5,#0
        0x0000086a:    605d        ]`      STR      r5,[r3,#4]
        0x0000086c:    601d        .`      STR      r5,[r3,#0]
        0x0000086e:    8920         .      LDRH     r0,[r4,#8]
        0x00000870:    f000fb9a    ....    BL       MakeData ; 0xfa8
        0x00000874:    609d        .`      STR      r5,[r3,#8]
        0x00000876:    2001        .       MOVS     r0,#1
        0x00000878:    6098        .`      STR      r0,[r3,#8]
        0x0000087a:    6018        .`      STR      r0,[r3,#0]
        0x0000087c:    4630        0F      MOV      r0,r6
        0x0000087e:    f000fb57    ..W.    BL       LCD_WR_DATA ; 0xf30
        0x00000882:    bdf8        ..      POP      {r3-r7,pc}
    $d
        0x00000884:    20000014    ...     DCD    536870932
        0x00000888:    40050000    ...@    DCD    1074069504
    $t
    i.LCD_Init
    LCD_Init
        0x0000088c:    b570        p.      PUSH     {r4-r6,lr}
        0x0000088e:    4d96        .M      LDR      r5,[pc,#600] ; [0xae8] = 0x2625a0
        0x00000890:    4604        .F      MOV      r4,r0
        0x00000892:    4628        (F      MOV      r0,r5
        0x00000894:    f000fd34    ..4.    BL       delay_us ; 0x1300
        0x00000898:    2101        .!      MOVS     r1,#1
        0x0000089a:    2000        .       MOVS     r0,#0
        0x0000089c:    f000fb7c    ..|.    BL       LCD_WriteReg ; 0xf98
        0x000008a0:    4628        (F      MOV      r0,r5
        0x000008a2:    f000fd2d    ..-.    BL       delay_us ; 0x1300
        0x000008a6:    2000        .       MOVS     r0,#0
        0x000008a8:    f000f946    ..F.    BL       LCD_ReadReg ; 0xb38
        0x000008ac:    4990        .I      LDR      r1,[pc,#576] ; [0xaf0] = 0x20000014
        0x000008ae:    488f        .H      LDR      r0,[pc,#572] ; [0xaec] = 0x9341
        0x000008b0:    8088        ..      STRH     r0,[r1,#4]
        0x000008b2:    20cf        .       MOVS     r0,#0xcf
        0x000008b4:    f000fb52    ..R.    BL       LCD_WR_REG ; 0xf5c
        0x000008b8:    2000        .       MOVS     r0,#0
        0x000008ba:    f000fb39    ..9.    BL       LCD_WR_DATA ; 0xf30
        0x000008be:    20c1        .       MOVS     r0,#0xc1
        0x000008c0:    f000fb36    ..6.    BL       LCD_WR_DATA ; 0xf30
        0x000008c4:    2030        0       MOVS     r0,#0x30
        0x000008c6:    f000fb33    ..3.    BL       LCD_WR_DATA ; 0xf30
        0x000008ca:    20ed        .       MOVS     r0,#0xed
        0x000008cc:    f000fb46    ..F.    BL       LCD_WR_REG ; 0xf5c
        0x000008d0:    2064        d       MOVS     r0,#0x64
        0x000008d2:    f000fb2d    ..-.    BL       LCD_WR_DATA ; 0xf30
        0x000008d6:    2003        .       MOVS     r0,#3
        0x000008d8:    f000fb2a    ..*.    BL       LCD_WR_DATA ; 0xf30
        0x000008dc:    2012        .       MOVS     r0,#0x12
        0x000008de:    f000fb27    ..'.    BL       LCD_WR_DATA ; 0xf30
        0x000008e2:    2081        .       MOVS     r0,#0x81
        0x000008e4:    f000fb24    ..$.    BL       LCD_WR_DATA ; 0xf30
        0x000008e8:    20e8        .       MOVS     r0,#0xe8
        0x000008ea:    f000fb37    ..7.    BL       LCD_WR_REG ; 0xf5c
        0x000008ee:    2085        .       MOVS     r0,#0x85
        0x000008f0:    f000fb1e    ....    BL       LCD_WR_DATA ; 0xf30
        0x000008f4:    2010        .       MOVS     r0,#0x10
        0x000008f6:    f000fb1b    ....    BL       LCD_WR_DATA ; 0xf30
        0x000008fa:    207a        z       MOVS     r0,#0x7a
        0x000008fc:    f000fb18    ....    BL       LCD_WR_DATA ; 0xf30
        0x00000900:    20cb        .       MOVS     r0,#0xcb
        0x00000902:    f000fb2b    ..+.    BL       LCD_WR_REG ; 0xf5c
        0x00000906:    2039        9       MOVS     r0,#0x39
        0x00000908:    f000fb12    ....    BL       LCD_WR_DATA ; 0xf30
        0x0000090c:    202c        ,       MOVS     r0,#0x2c
        0x0000090e:    f000fb0f    ....    BL       LCD_WR_DATA ; 0xf30
        0x00000912:    2000        .       MOVS     r0,#0
        0x00000914:    f000fb0c    ....    BL       LCD_WR_DATA ; 0xf30
        0x00000918:    2034        4       MOVS     r0,#0x34
        0x0000091a:    f000fb09    ....    BL       LCD_WR_DATA ; 0xf30
        0x0000091e:    2002        .       MOVS     r0,#2
        0x00000920:    f000fb06    ....    BL       LCD_WR_DATA ; 0xf30
        0x00000924:    20f7        .       MOVS     r0,#0xf7
        0x00000926:    f000fb19    ....    BL       LCD_WR_REG ; 0xf5c
        0x0000092a:    2020                MOVS     r0,#0x20
        0x0000092c:    f000fb00    ....    BL       LCD_WR_DATA ; 0xf30
        0x00000930:    20ea        .       MOVS     r0,#0xea
        0x00000932:    f000fb13    ....    BL       LCD_WR_REG ; 0xf5c
        0x00000936:    2000        .       MOVS     r0,#0
        0x00000938:    f000fafa    ....    BL       LCD_WR_DATA ; 0xf30
        0x0000093c:    2000        .       MOVS     r0,#0
        0x0000093e:    f000faf7    ....    BL       LCD_WR_DATA ; 0xf30
        0x00000942:    20c0        .       MOVS     r0,#0xc0
        0x00000944:    f000fb0a    ....    BL       LCD_WR_REG ; 0xf5c
        0x00000948:    201b        .       MOVS     r0,#0x1b
        0x0000094a:    f000faf1    ....    BL       LCD_WR_DATA ; 0xf30
        0x0000094e:    20c1        .       MOVS     r0,#0xc1
        0x00000950:    f000fb04    ....    BL       LCD_WR_REG ; 0xf5c
        0x00000954:    2001        .       MOVS     r0,#1
        0x00000956:    f000faeb    ....    BL       LCD_WR_DATA ; 0xf30
        0x0000095a:    20c5        .       MOVS     r0,#0xc5
        0x0000095c:    f000fafe    ....    BL       LCD_WR_REG ; 0xf5c
        0x00000960:    2030        0       MOVS     r0,#0x30
        0x00000962:    f000fae5    ....    BL       LCD_WR_DATA ; 0xf30
        0x00000966:    2030        0       MOVS     r0,#0x30
        0x00000968:    f000fae2    ....    BL       LCD_WR_DATA ; 0xf30
        0x0000096c:    20c7        .       MOVS     r0,#0xc7
        0x0000096e:    f000faf5    ....    BL       LCD_WR_REG ; 0xf5c
        0x00000972:    20b7        .       MOVS     r0,#0xb7
        0x00000974:    f000fadc    ....    BL       LCD_WR_DATA ; 0xf30
        0x00000978:    2036        6       MOVS     r0,#0x36
        0x0000097a:    f000faef    ....    BL       LCD_WR_REG ; 0xf5c
        0x0000097e:    2048        H       MOVS     r0,#0x48
        0x00000980:    f000fad6    ....    BL       LCD_WR_DATA ; 0xf30
        0x00000984:    203a        :       MOVS     r0,#0x3a
        0x00000986:    f000fae9    ....    BL       LCD_WR_REG ; 0xf5c
        0x0000098a:    2055        U       MOVS     r0,#0x55
        0x0000098c:    f000fad0    ....    BL       LCD_WR_DATA ; 0xf30
        0x00000990:    20b1        .       MOVS     r0,#0xb1
        0x00000992:    f000fae3    ....    BL       LCD_WR_REG ; 0xf5c
        0x00000996:    2000        .       MOVS     r0,#0
        0x00000998:    f000faca    ....    BL       LCD_WR_DATA ; 0xf30
        0x0000099c:    201a        .       MOVS     r0,#0x1a
        0x0000099e:    f000fac7    ....    BL       LCD_WR_DATA ; 0xf30
        0x000009a2:    20b6        .       MOVS     r0,#0xb6
        0x000009a4:    f000fada    ....    BL       LCD_WR_REG ; 0xf5c
        0x000009a8:    200a        .       MOVS     r0,#0xa
        0x000009aa:    f000fac1    ....    BL       LCD_WR_DATA ; 0xf30
        0x000009ae:    20a2        .       MOVS     r0,#0xa2
        0x000009b0:    f000fabe    ....    BL       LCD_WR_DATA ; 0xf30
        0x000009b4:    20f2        .       MOVS     r0,#0xf2
        0x000009b6:    f000fad1    ....    BL       LCD_WR_REG ; 0xf5c
        0x000009ba:    2000        .       MOVS     r0,#0
        0x000009bc:    f000fab8    ....    BL       LCD_WR_DATA ; 0xf30
        0x000009c0:    2026        &       MOVS     r0,#0x26
        0x000009c2:    f000facb    ....    BL       LCD_WR_REG ; 0xf5c
        0x000009c6:    2001        .       MOVS     r0,#1
        0x000009c8:    f000fab2    ....    BL       LCD_WR_DATA ; 0xf30
        0x000009cc:    20e0        .       MOVS     r0,#0xe0
        0x000009ce:    f000fac5    ....    BL       LCD_WR_REG ; 0xf5c
        0x000009d2:    200f        .       MOVS     r0,#0xf
        0x000009d4:    f000faac    ....    BL       LCD_WR_DATA ; 0xf30
        0x000009d8:    202a        *       MOVS     r0,#0x2a
        0x000009da:    f000faa9    ....    BL       LCD_WR_DATA ; 0xf30
        0x000009de:    2028        (       MOVS     r0,#0x28
        0x000009e0:    f000faa6    ....    BL       LCD_WR_DATA ; 0xf30
        0x000009e4:    2008        .       MOVS     r0,#8
        0x000009e6:    f000faa3    ....    BL       LCD_WR_DATA ; 0xf30
        0x000009ea:    200e        .       MOVS     r0,#0xe
        0x000009ec:    f000faa0    ....    BL       LCD_WR_DATA ; 0xf30
        0x000009f0:    2008        .       MOVS     r0,#8
        0x000009f2:    f000fa9d    ....    BL       LCD_WR_DATA ; 0xf30
        0x000009f6:    2054        T       MOVS     r0,#0x54
        0x000009f8:    f000fa9a    ....    BL       LCD_WR_DATA ; 0xf30
        0x000009fc:    20a9        .       MOVS     r0,#0xa9
        0x000009fe:    f000fa97    ....    BL       LCD_WR_DATA ; 0xf30
        0x00000a02:    2043        C       MOVS     r0,#0x43
        0x00000a04:    f000fa94    ....    BL       LCD_WR_DATA ; 0xf30
        0x00000a08:    200a        .       MOVS     r0,#0xa
        0x00000a0a:    f000fa91    ....    BL       LCD_WR_DATA ; 0xf30
        0x00000a0e:    200f        .       MOVS     r0,#0xf
        0x00000a10:    f000fa8e    ....    BL       LCD_WR_DATA ; 0xf30
        0x00000a14:    2000        .       MOVS     r0,#0
        0x00000a16:    f000fa8b    ....    BL       LCD_WR_DATA ; 0xf30
        0x00000a1a:    2000        .       MOVS     r0,#0
        0x00000a1c:    f000fa88    ....    BL       LCD_WR_DATA ; 0xf30
        0x00000a20:    2000        .       MOVS     r0,#0
        0x00000a22:    f000fa85    ....    BL       LCD_WR_DATA ; 0xf30
        0x00000a26:    2000        .       MOVS     r0,#0
        0x00000a28:    f000fa82    ....    BL       LCD_WR_DATA ; 0xf30
        0x00000a2c:    20e1        .       MOVS     r0,#0xe1
        0x00000a2e:    f000fa95    ....    BL       LCD_WR_REG ; 0xf5c
        0x00000a32:    2000        .       MOVS     r0,#0
        0x00000a34:    f000fa7c    ..|.    BL       LCD_WR_DATA ; 0xf30
        0x00000a38:    2015        .       MOVS     r0,#0x15
        0x00000a3a:    f000fa79    ..y.    BL       LCD_WR_DATA ; 0xf30
        0x00000a3e:    2017        .       MOVS     r0,#0x17
        0x00000a40:    f000fa76    ..v.    BL       LCD_WR_DATA ; 0xf30
        0x00000a44:    2007        .       MOVS     r0,#7
        0x00000a46:    f000fa73    ..s.    BL       LCD_WR_DATA ; 0xf30
        0x00000a4a:    2011        .       MOVS     r0,#0x11
        0x00000a4c:    f000fa70    ..p.    BL       LCD_WR_DATA ; 0xf30
        0x00000a50:    2006        .       MOVS     r0,#6
        0x00000a52:    f000fa6d    ..m.    BL       LCD_WR_DATA ; 0xf30
        0x00000a56:    202b        +       MOVS     r0,#0x2b
        0x00000a58:    f000fa6a    ..j.    BL       LCD_WR_DATA ; 0xf30
        0x00000a5c:    2056        V       MOVS     r0,#0x56
        0x00000a5e:    f000fa67    ..g.    BL       LCD_WR_DATA ; 0xf30
        0x00000a62:    203c        <       MOVS     r0,#0x3c
        0x00000a64:    f000fa64    ..d.    BL       LCD_WR_DATA ; 0xf30
        0x00000a68:    2005        .       MOVS     r0,#5
        0x00000a6a:    f000fa61    ..a.    BL       LCD_WR_DATA ; 0xf30
        0x00000a6e:    2010        .       MOVS     r0,#0x10
        0x00000a70:    f000fa5e    ..^.    BL       LCD_WR_DATA ; 0xf30
        0x00000a74:    200f        .       MOVS     r0,#0xf
        0x00000a76:    f000fa5b    ..[.    BL       LCD_WR_DATA ; 0xf30
        0x00000a7a:    203f        ?       MOVS     r0,#0x3f
        0x00000a7c:    f000fa58    ..X.    BL       LCD_WR_DATA ; 0xf30
        0x00000a80:    203f        ?       MOVS     r0,#0x3f
        0x00000a82:    f000fa55    ..U.    BL       LCD_WR_DATA ; 0xf30
        0x00000a86:    200f        .       MOVS     r0,#0xf
        0x00000a88:    f000fa52    ..R.    BL       LCD_WR_DATA ; 0xf30
        0x00000a8c:    202b        +       MOVS     r0,#0x2b
        0x00000a8e:    f000fa65    ..e.    BL       LCD_WR_REG ; 0xf5c
        0x00000a92:    2000        .       MOVS     r0,#0
        0x00000a94:    f000fa4c    ..L.    BL       LCD_WR_DATA ; 0xf30
        0x00000a98:    2000        .       MOVS     r0,#0
        0x00000a9a:    f000fa49    ..I.    BL       LCD_WR_DATA ; 0xf30
        0x00000a9e:    2001        .       MOVS     r0,#1
        0x00000aa0:    f000fa46    ..F.    BL       LCD_WR_DATA ; 0xf30
        0x00000aa4:    203f        ?       MOVS     r0,#0x3f
        0x00000aa6:    f000fa43    ..C.    BL       LCD_WR_DATA ; 0xf30
        0x00000aaa:    202a        *       MOVS     r0,#0x2a
        0x00000aac:    f000fa56    ..V.    BL       LCD_WR_REG ; 0xf5c
        0x00000ab0:    2000        .       MOVS     r0,#0
        0x00000ab2:    f000fa3d    ..=.    BL       LCD_WR_DATA ; 0xf30
        0x00000ab6:    2000        .       MOVS     r0,#0
        0x00000ab8:    f000fa3a    ..:.    BL       LCD_WR_DATA ; 0xf30
        0x00000abc:    2000        .       MOVS     r0,#0
        0x00000abe:    f000fa37    ..7.    BL       LCD_WR_DATA ; 0xf30
        0x00000ac2:    20ef        .       MOVS     r0,#0xef
        0x00000ac4:    f000fa34    ..4.    BL       LCD_WR_DATA ; 0xf30
        0x00000ac8:    2011        .       MOVS     r0,#0x11
        0x00000aca:    f000fa47    ..G.    BL       LCD_WR_REG ; 0xf5c
        0x00000ace:    4809        .H      LDR      r0,[pc,#36] ; [0xaf4] = 0x5b8d80
        0x00000ad0:    f000fc16    ....    BL       delay_us ; 0x1300
        0x00000ad4:    2029        )       MOVS     r0,#0x29
        0x00000ad6:    f000fa41    ..A.    BL       LCD_WR_REG ; 0xf5c
        0x00000ada:    4620         F      MOV      r0,r4
        0x00000adc:    f7fffe7e    ..~.    BL       LCD_Display_Dir ; 0x7dc
        0x00000ae0:    4905        .I      LDR      r1,[pc,#20] ; [0xaf8] = 0x40050000
        0x00000ae2:    2001        .       MOVS     r0,#1
        0x00000ae4:    6148        Ha      STR      r0,[r1,#0x14]
        0x00000ae6:    bd70        p.      POP      {r4-r6,pc}
    $d
        0x00000ae8:    002625a0    .%&.    DCD    2500000
        0x00000aec:    00009341    A...    DCD    37697
        0x00000af0:    20000014    ...     DCD    536870932
        0x00000af4:    005b8d80    ..[.    DCD    6000000
        0x00000af8:    40050000    ...@    DCD    1074069504
    $t
    i.LCD_Pow
    LCD_Pow
        0x00000afc:    4602        .F      MOV      r2,r0
        0x00000afe:    2001        .       MOVS     r0,#1
        0x00000b00:    e000        ..      B        0xb04 ; LCD_Pow + 8
        0x00000b02:    4350        PC      MULS     r0,r2,r0
        0x00000b04:    460b        .F      MOV      r3,r1
        0x00000b06:    1e49        I.      SUBS     r1,r1,#1
        0x00000b08:    b2c9        ..      UXTB     r1,r1
        0x00000b0a:    2b00        .+      CMP      r3,#0
        0x00000b0c:    d1f9        ..      BNE      0xb02 ; LCD_Pow + 6
        0x00000b0e:    4770        pG      BX       lr
    i.LCD_RD_DATA
    LCD_RD_DATA
        0x00000b10:    b570        p.      PUSH     {r4-r6,lr}
        0x00000b12:    4c08        .L      LDR      r4,[pc,#32] ; [0xb34] = 0x40050000
        0x00000b14:    2501        .%      MOVS     r5,#1
        0x00000b16:    6065        e`      STR      r5,[r4,#4]
        0x00000b18:    2000        .       MOVS     r0,#0
        0x00000b1a:    6020         `      STR      r0,[r4,#0]
        0x00000b1c:    60e0        .`      STR      r0,[r4,#0xc]
        0x00000b1e:    f000fa79    ..y.    BL       ReadData ; 0x1014
        0x00000b22:    4606        .F      MOV      r6,r0
        0x00000b24:    2001        .       MOVS     r0,#1
        0x00000b26:    f000fbeb    ....    BL       delay_us ; 0x1300
        0x00000b2a:    60e5        .`      STR      r5,[r4,#0xc]
        0x00000b2c:    6025        %`      STR      r5,[r4,#0]
        0x00000b2e:    4630        0F      MOV      r0,r6
        0x00000b30:    bd70        p.      POP      {r4-r6,pc}
    $d
        0x00000b32:    0000        ..      DCW    0
        0x00000b34:    40050000    ...@    DCD    1074069504
    $t
    i.LCD_ReadReg
    LCD_ReadReg
        0x00000b38:    b510        ..      PUSH     {r4,lr}
        0x00000b3a:    f000fa0f    ....    BL       LCD_WR_REG ; 0xf5c
        0x00000b3e:    2032        2       MOVS     r0,#0x32
        0x00000b40:    f000fbde    ....    BL       delay_us ; 0x1300
        0x00000b44:    f7ffffe4    ....    BL       LCD_RD_DATA ; 0xb10
        0x00000b48:    bd10        ..      POP      {r4,pc}
        0x00000b4a:    0000        ..      MOVS     r0,r0
    i.LCD_Scan_Dir
    LCD_Scan_Dir
        0x00000b4c:    b5f8        ..      PUSH     {r3-r7,lr}
        0x00000b4e:    4e7f        .N      LDR      r6,[pc,#508] ; [0xd4c] = 0x20000014
        0x00000b50:    2400        .$      MOVS     r4,#0
        0x00000b52:    79b3        .y      LDRB     r3,[r6,#6]
        0x00000b54:    4631        1F      MOV      r1,r6
        0x00000b56:    4a7e        ~J      LDR      r2,[pc,#504] ; [0xd50] = 0x6804
        0x00000b58:    4d7e        ~M      LDR      r5,[pc,#504] ; [0xd54] = 0x1963
        0x00000b5a:    8889        ..      LDRH     r1,[r1,#4]
        0x00000b5c:    2b01        .+      CMP      r3,#1
        0x00000b5e:    d002        ..      BEQ      0xb66 ; LCD_Scan_Dir + 26
        0x00000b60:    2b00        .+      CMP      r3,#0
        0x00000b62:    d005        ..      BEQ      0xb70 ; LCD_Scan_Dir + 36
        0x00000b64:    e01d        ..      B        0xba2 ; LCD_Scan_Dir + 86
        0x00000b66:    4291        .B      CMP      r1,r2
        0x00000b68:    d01b        ..      BEQ      0xba2 ; LCD_Scan_Dir + 86
        0x00000b6a:    42a9        .B      CMP      r1,r5
        0x00000b6c:    d102        ..      BNE      0xb74 ; LCD_Scan_Dir + 40
        0x00000b6e:    e018        ..      B        0xba2 ; LCD_Scan_Dir + 86
        0x00000b70:    42a9        .B      CMP      r1,r5
        0x00000b72:    d116        ..      BNE      0xba2 ; LCD_Scan_Dir + 86
        0x00000b74:    0003        ..      MOVS     r3,r0
        0x00000b76:    f000fab7    ....    BL       __ARM_common_switch8 ; 0x10e8
    $d
        0x00000b7a:    0508        ..      DCW    1288
        0x00000b7c:    0d0b0907    ....    DCD    218827015
        0x00000b80:    1413110f    ....    DCD    336793871
    $t
        0x00000b84:    2006        .       MOVS     r0,#6
        0x00000b86:    e00c        ..      B        0xba2 ; LCD_Scan_Dir + 86
        0x00000b88:    2007        .       MOVS     r0,#7
        0x00000b8a:    e00a        ..      B        0xba2 ; LCD_Scan_Dir + 86
        0x00000b8c:    2004        .       MOVS     r0,#4
        0x00000b8e:    e008        ..      B        0xba2 ; LCD_Scan_Dir + 86
        0x00000b90:    2005        .       MOVS     r0,#5
        0x00000b92:    e006        ..      B        0xba2 ; LCD_Scan_Dir + 86
        0x00000b94:    2001        .       MOVS     r0,#1
        0x00000b96:    e004        ..      B        0xba2 ; LCD_Scan_Dir + 86
        0x00000b98:    2000        .       MOVS     r0,#0
        0x00000b9a:    e002        ..      B        0xba2 ; LCD_Scan_Dir + 86
        0x00000b9c:    2003        .       MOVS     r0,#3
        0x00000b9e:    e000        ..      B        0xba2 ; LCD_Scan_Dir + 86
        0x00000ba0:    2002        .       MOVS     r0,#2
        0x00000ba2:    4b6d        mK      LDR      r3,[pc,#436] ; [0xd58] = 0x9341
        0x00000ba4:    4f6d        mO      LDR      r7,[pc,#436] ; [0xd5c] = 0x5310
        0x00000ba6:    4e6e        nN      LDR      r6,[pc,#440] ; [0xd60] = 0x5510
        0x00000ba8:    4299        .B      CMP      r1,r3
        0x00000baa:    d007        ..      BEQ      0xbbc ; LCD_Scan_Dir + 112
        0x00000bac:    4291        .B      CMP      r1,r2
        0x00000bae:    d005        ..      BEQ      0xbbc ; LCD_Scan_Dir + 112
        0x00000bb0:    42b9        .B      CMP      r1,r7
        0x00000bb2:    d003        ..      BEQ      0xbbc ; LCD_Scan_Dir + 112
        0x00000bb4:    42b1        .B      CMP      r1,r6
        0x00000bb6:    d001        ..      BEQ      0xbbc ; LCD_Scan_Dir + 112
        0x00000bb8:    42a9        .B      CMP      r1,r5
        0x00000bba:    d17c        |.      BNE      0xcb6 ; LCD_Scan_Dir + 362
        0x00000bbc:    0003        ..      MOVS     r3,r0
        0x00000bbe:    f000fa93    ....    BL       __ARM_common_switch8 ; 0x10e8
    $d
        0x00000bc2:    1208        ..      DCW    4616
        0x00000bc4:    0b090705    ....    DCD    185140997
        0x00000bc8:    12110f0d    ....    DCD    303107853
    $t
        0x00000bcc:    2480        .$      MOVS     r4,#0x80
        0x00000bce:    e00a        ..      B        0xbe6 ; LCD_Scan_Dir + 154
        0x00000bd0:    2440        @$      MOVS     r4,#0x40
        0x00000bd2:    e008        ..      B        0xbe6 ; LCD_Scan_Dir + 154
        0x00000bd4:    24c0        .$      MOVS     r4,#0xc0
        0x00000bd6:    e006        ..      B        0xbe6 ; LCD_Scan_Dir + 154
        0x00000bd8:    2420         $      MOVS     r4,#0x20
        0x00000bda:    e004        ..      B        0xbe6 ; LCD_Scan_Dir + 154
        0x00000bdc:    2460        `$      MOVS     r4,#0x60
        0x00000bde:    e002        ..      B        0xbe6 ; LCD_Scan_Dir + 154
        0x00000be0:    24a0        .$      MOVS     r4,#0xa0
        0x00000be2:    e000        ..      B        0xbe6 ; LCD_Scan_Dir + 154
        0x00000be4:    24e0        .$      MOVS     r4,#0xe0
        0x00000be6:    42b1        .B      CMP      r1,r6
        0x00000be8:    d102        ..      BNE      0xbf0 ; LCD_Scan_Dir + 164
        0x00000bea:    201b        .       MOVS     r0,#0x1b
        0x00000bec:    0240        @.      LSLS     r0,r0,#9
        0x00000bee:    e000        ..      B        0xbf2 ; LCD_Scan_Dir + 166
        0x00000bf0:    2036        6       MOVS     r0,#0x36
        0x00000bf2:    42b9        .B      CMP      r1,r7
        0x00000bf4:    d005        ..      BEQ      0xc02 ; LCD_Scan_Dir + 182
        0x00000bf6:    42b1        .B      CMP      r1,r6
        0x00000bf8:    d003        ..      BEQ      0xc02 ; LCD_Scan_Dir + 182
        0x00000bfa:    42a9        .B      CMP      r1,r5
        0x00000bfc:    d001        ..      BEQ      0xc02 ; LCD_Scan_Dir + 182
        0x00000bfe:    2308        .#      MOVS     r3,#8
        0x00000c00:    431c        .C      ORRS     r4,r4,r3
        0x00000c02:    4f52        RO      LDR      r7,[pc,#328] ; [0xd4c] = 0x20000014
        0x00000c04:    4291        .B      CMP      r1,r2
        0x00000c06:    d101        ..      BNE      0xc0c ; LCD_Scan_Dir + 192
        0x00000c08:    2102        .!      MOVS     r1,#2
        0x00000c0a:    430c        .C      ORRS     r4,r4,r1
        0x00000c0c:    4621        !F      MOV      r1,r4
        0x00000c0e:    f000f9c3    ....    BL       LCD_WriteReg ; 0xf98
        0x00000c12:    88b8        ..      LDRH     r0,[r7,#4]
        0x00000c14:    42a8        .B      CMP      r0,r5
        0x00000c16:    d00a        ..      BEQ      0xc2e ; LCD_Scan_Dir + 226
        0x00000c18:    06a1        ..      LSLS     r1,r4,#26
        0x00000c1a:    8839        9.      LDRH     r1,[r7,#0]
        0x00000c1c:    887a        z.      LDRH     r2,[r7,#2]
        0x00000c1e:    d502        ..      BPL      0xc26 ; LCD_Scan_Dir + 218
        0x00000c20:    4291        .B      CMP      r1,r2
        0x00000c22:    d302        ..      BCC      0xc2a ; LCD_Scan_Dir + 222
        0x00000c24:    e003        ..      B        0xc2e ; LCD_Scan_Dir + 226
        0x00000c26:    4291        .B      CMP      r1,r2
        0x00000c28:    d901        ..      BLS      0xc2e ; LCD_Scan_Dir + 226
        0x00000c2a:    803a        :.      STRH     r2,[r7,#0]
        0x00000c2c:    8079        y.      STRH     r1,[r7,#2]
        0x00000c2e:    42b0        .B      CMP      r0,r6
        0x00000c30:    8978        x.      LDRH     r0,[r7,#0xa]
        0x00000c32:    d144        D.      BNE      0xcbe ; LCD_Scan_Dir + 370
        0x00000c34:    f000f992    ....    BL       LCD_WR_REG ; 0xf5c
        0x00000c38:    2000        .       MOVS     r0,#0
        0x00000c3a:    f000f979    ..y.    BL       LCD_WR_DATA ; 0xf30
        0x00000c3e:    8978        x.      LDRH     r0,[r7,#0xa]
        0x00000c40:    1c40        @.      ADDS     r0,r0,#1
        0x00000c42:    b280        ..      UXTH     r0,r0
        0x00000c44:    f000f98a    ....    BL       LCD_WR_REG ; 0xf5c
        0x00000c48:    2000        .       MOVS     r0,#0
        0x00000c4a:    f000f971    ..q.    BL       LCD_WR_DATA ; 0xf30
        0x00000c4e:    8978        x.      LDRH     r0,[r7,#0xa]
        0x00000c50:    1c80        ..      ADDS     r0,r0,#2
        0x00000c52:    b280        ..      UXTH     r0,r0
        0x00000c54:    f000f982    ....    BL       LCD_WR_REG ; 0xf5c
        0x00000c58:    8838        8.      LDRH     r0,[r7,#0]
        0x00000c5a:    0200        ..      LSLS     r0,r0,#8
        0x00000c5c:    38ff        .8      SUBS     r0,r0,#0xff
        0x00000c5e:    3801        .8      SUBS     r0,#1
        0x00000c60:    0c00        ..      LSRS     r0,r0,#16
        0x00000c62:    f000f965    ..e.    BL       LCD_WR_DATA ; 0xf30
        0x00000c66:    8978        x.      LDRH     r0,[r7,#0xa]
        0x00000c68:    1cc0        ..      ADDS     r0,r0,#3
        0x00000c6a:    b280        ..      UXTH     r0,r0
        0x00000c6c:    f000f976    ..v.    BL       LCD_WR_REG ; 0xf5c
        0x00000c70:    7838        8x      LDRB     r0,[r7,#0]
        0x00000c72:    1e40        @.      SUBS     r0,r0,#1
        0x00000c74:    b2c0        ..      UXTB     r0,r0
        0x00000c76:    f000f95b    ..[.    BL       LCD_WR_DATA ; 0xf30
        0x00000c7a:    89b8        ..      LDRH     r0,[r7,#0xc]
        0x00000c7c:    f000f96e    ..n.    BL       LCD_WR_REG ; 0xf5c
        0x00000c80:    2000        .       MOVS     r0,#0
        0x00000c82:    f000f955    ..U.    BL       LCD_WR_DATA ; 0xf30
        0x00000c86:    89b8        ..      LDRH     r0,[r7,#0xc]
        0x00000c88:    1c40        @.      ADDS     r0,r0,#1
        0x00000c8a:    b280        ..      UXTH     r0,r0
        0x00000c8c:    f000f966    ..f.    BL       LCD_WR_REG ; 0xf5c
        0x00000c90:    2000        .       MOVS     r0,#0
        0x00000c92:    f000f94d    ..M.    BL       LCD_WR_DATA ; 0xf30
        0x00000c96:    89b8        ..      LDRH     r0,[r7,#0xc]
        0x00000c98:    1c80        ..      ADDS     r0,r0,#2
        0x00000c9a:    b280        ..      UXTH     r0,r0
        0x00000c9c:    f000f95e    ..^.    BL       LCD_WR_REG ; 0xf5c
        0x00000ca0:    8878        x.      LDRH     r0,[r7,#2]
        0x00000ca2:    0200        ..      LSLS     r0,r0,#8
        0x00000ca4:    38ff        .8      SUBS     r0,r0,#0xff
        0x00000ca6:    3801        .8      SUBS     r0,#1
        0x00000ca8:    0c00        ..      LSRS     r0,r0,#16
        0x00000caa:    f000f941    ..A.    BL       LCD_WR_DATA ; 0xf30
        0x00000cae:    89b8        ..      LDRH     r0,[r7,#0xc]
        0x00000cb0:    1cc0        ..      ADDS     r0,r0,#3
        0x00000cb2:    b280        ..      UXTH     r0,r0
        0x00000cb4:    e000        ..      B        0xcb8 ; LCD_Scan_Dir + 364
        0x00000cb6:    e02c        ,.      B        0xd12 ; LCD_Scan_Dir + 454
        0x00000cb8:    f000f950    ..P.    BL       LCD_WR_REG ; 0xf5c
        0x00000cbc:    e023        #.      B        0xd06 ; LCD_Scan_Dir + 442
        0x00000cbe:    f000f94d    ..M.    BL       LCD_WR_REG ; 0xf5c
        0x00000cc2:    2000        .       MOVS     r0,#0
        0x00000cc4:    f000f934    ..4.    BL       LCD_WR_DATA ; 0xf30
        0x00000cc8:    2000        .       MOVS     r0,#0
        0x00000cca:    f000f931    ..1.    BL       LCD_WR_DATA ; 0xf30
        0x00000cce:    8838        8.      LDRH     r0,[r7,#0]
        0x00000cd0:    0200        ..      LSLS     r0,r0,#8
        0x00000cd2:    38ff        .8      SUBS     r0,r0,#0xff
        0x00000cd4:    3801        .8      SUBS     r0,#1
        0x00000cd6:    0c00        ..      LSRS     r0,r0,#16
        0x00000cd8:    f000f92a    ..*.    BL       LCD_WR_DATA ; 0xf30
        0x00000cdc:    7838        8x      LDRB     r0,[r7,#0]
        0x00000cde:    1e40        @.      SUBS     r0,r0,#1
        0x00000ce0:    b2c0        ..      UXTB     r0,r0
        0x00000ce2:    f000f925    ..%.    BL       LCD_WR_DATA ; 0xf30
        0x00000ce6:    89b8        ..      LDRH     r0,[r7,#0xc]
        0x00000ce8:    f000f938    ..8.    BL       LCD_WR_REG ; 0xf5c
        0x00000cec:    2000        .       MOVS     r0,#0
        0x00000cee:    f000f91f    ....    BL       LCD_WR_DATA ; 0xf30
        0x00000cf2:    2000        .       MOVS     r0,#0
        0x00000cf4:    f000f91c    ....    BL       LCD_WR_DATA ; 0xf30
        0x00000cf8:    8878        x.      LDRH     r0,[r7,#2]
        0x00000cfa:    0200        ..      LSLS     r0,r0,#8
        0x00000cfc:    38ff        .8      SUBS     r0,r0,#0xff
        0x00000cfe:    3801        .8      SUBS     r0,#1
        0x00000d00:    0c00        ..      LSRS     r0,r0,#16
        0x00000d02:    f000f915    ....    BL       LCD_WR_DATA ; 0xf30
        0x00000d06:    78b8        .x      LDRB     r0,[r7,#2]
        0x00000d08:    1e40        @.      SUBS     r0,r0,#1
        0x00000d0a:    b2c0        ..      UXTB     r0,r0
        0x00000d0c:    f000f910    ....    BL       LCD_WR_DATA ; 0xf30
        0x00000d10:    bdf8        ..      POP      {r3-r7,pc}
        0x00000d12:    0003        ..      MOVS     r3,r0
        0x00000d14:    f000f9e8    ....    BL       __ARM_common_switch8 ; 0x10e8
    $d
        0x00000d18:    09070508    ....    DCD    151454984
        0x00000d1c:    0f0d0b12    ....    DCD    252513042
        0x00000d20:    1211        ..      DCW    4625
    $t
        0x00000d22:    2430        0$      MOVS     r4,#0x30
        0x00000d24:    e00a        ..      B        0xd3c ; LCD_Scan_Dir + 496
        0x00000d26:    2410        .$      MOVS     r4,#0x10
        0x00000d28:    e008        ..      B        0xd3c ; LCD_Scan_Dir + 496
        0x00000d2a:    2420         $      MOVS     r4,#0x20
        0x00000d2c:    e006        ..      B        0xd3c ; LCD_Scan_Dir + 496
        0x00000d2e:    2438        8$      MOVS     r4,#0x38
        0x00000d30:    e004        ..      B        0xd3c ; LCD_Scan_Dir + 496
        0x00000d32:    2428        ($      MOVS     r4,#0x28
        0x00000d34:    e002        ..      B        0xd3c ; LCD_Scan_Dir + 496
        0x00000d36:    2418        .$      MOVS     r4,#0x18
        0x00000d38:    e000        ..      B        0xd3c ; LCD_Scan_Dir + 496
        0x00000d3a:    2408        .$      MOVS     r4,#8
        0x00000d3c:    2201        ."      MOVS     r2,#1
        0x00000d3e:    4621        !F      MOV      r1,r4
        0x00000d40:    0312        ..      LSLS     r2,r2,#12
        0x00000d42:    2003        .       MOVS     r0,#3
        0x00000d44:    4311        .C      ORRS     r1,r1,r2
        0x00000d46:    f000f927    ..'.    BL       LCD_WriteReg ; 0xf98
        0x00000d4a:    bdf8        ..      POP      {r3-r7,pc}
    $d
        0x00000d4c:    20000014    ...     DCD    536870932
        0x00000d50:    00006804    .h..    DCD    26628
        0x00000d54:    00001963    c...    DCD    6499
        0x00000d58:    00009341    A...    DCD    37697
        0x00000d5c:    00005310    .S..    DCD    21264
        0x00000d60:    00005510    .U..    DCD    21776
    $t
    i.LCD_SetCursor
    LCD_SetCursor
        0x00000d64:    b570        p.      PUSH     {r4-r6,lr}
        0x00000d66:    4e0b        .N      LDR      r6,[pc,#44] ; [0xd94] = 0x20000014
        0x00000d68:    4605        .F      MOV      r5,r0
        0x00000d6a:    460c        .F      MOV      r4,r1
        0x00000d6c:    8970        p.      LDRH     r0,[r6,#0xa]
        0x00000d6e:    f000f8f5    ....    BL       LCD_WR_REG ; 0xf5c
        0x00000d72:    0a28        (.      LSRS     r0,r5,#8
        0x00000d74:    f000f8dc    ....    BL       LCD_WR_DATA ; 0xf30
        0x00000d78:    b2e8        ..      UXTB     r0,r5
        0x00000d7a:    f000f8d9    ....    BL       LCD_WR_DATA ; 0xf30
        0x00000d7e:    89b0        ..      LDRH     r0,[r6,#0xc]
        0x00000d80:    f000f8ec    ....    BL       LCD_WR_REG ; 0xf5c
        0x00000d84:    0a20         .      LSRS     r0,r4,#8
        0x00000d86:    f000f8d3    ....    BL       LCD_WR_DATA ; 0xf30
        0x00000d8a:    b2e0        ..      UXTB     r0,r4
        0x00000d8c:    f000f8d0    ....    BL       LCD_WR_DATA ; 0xf30
        0x00000d90:    bd70        p.      POP      {r4-r6,pc}
    $d
        0x00000d92:    0000        ..      DCW    0
        0x00000d94:    20000014    ...     DCD    536870932
    $t
    i.LCD_ShowChar
    LCD_ShowChar
        0x00000d98:    b5ff        ..      PUSH     {r0-r7,lr}
        0x00000d9a:    b085        ..      SUB      sp,sp,#0x14
        0x00000d9c:    460c        .F      MOV      r4,r1
        0x00000d9e:    9104        ..      STR      r1,[sp,#0x10]
        0x00000da0:    08d9        ..      LSRS     r1,r3,#3
        0x00000da2:    461d        .F      MOV      r5,r3
        0x00000da4:    0758        X.      LSLS     r0,r3,#29
        0x00000da6:    d000        ..      BEQ      0xdaa ; LCD_ShowChar + 18
        0x00000da8:    2001        .       MOVS     r0,#1
        0x00000daa:    1808        ..      ADDS     r0,r1,r0
        0x00000dac:    0869        i.      LSRS     r1,r5,#1
        0x00000dae:    4348        HC      MULS     r0,r1,r0
        0x00000db0:    b2c0        ..      UXTB     r0,r0
        0x00000db2:    3a20         :      SUBS     r2,r2,#0x20
        0x00000db4:    9001        ..      STR      r0,[sp,#4]
        0x00000db6:    b2d0        ..      UXTB     r0,r2
        0x00000db8:    2600        .&      MOVS     r6,#0
        0x00000dba:    9007        ..      STR      r0,[sp,#0x1c]
        0x00000dbc:    e043        C.      B        0xe46 ; LCD_ShowChar + 174
        0x00000dbe:    2d0c        .-      CMP      r5,#0xc
        0x00000dc0:    d010        ..      BEQ      0xde4 ; LCD_ShowChar + 76
        0x00000dc2:    2d10        .-      CMP      r5,#0x10
        0x00000dc4:    d013        ..      BEQ      0xdee ; LCD_ShowChar + 86
        0x00000dc6:    2d18        .-      CMP      r5,#0x18
        0x00000dc8:    d140        @.      BNE      0xe4c ; LCD_ShowChar + 180
        0x00000dca:    9807        ..      LDR      r0,[sp,#0x1c]
        0x00000dcc:    2124        $!      MOVS     r1,#0x24
        0x00000dce:    4348        HC      MULS     r0,r1,r0
        0x00000dd0:    491f        .I      LDR      r1,[pc,#124] ; [0xe50] = 0x2280
        0x00000dd2:    1840        @.      ADDS     r0,r0,r1
        0x00000dd4:    5d87        .]      LDRB     r7,[r0,r6]
        0x00000dd6:    2000        .       MOVS     r0,#0
        0x00000dd8:    9003        ..      STR      r0,[sp,#0xc]
        0x00000dda:    0638        8.      LSLS     r0,r7,#24
        0x00000ddc:    d50b        ..      BPL      0xdf6 ; LCD_ShowChar + 94
        0x00000dde:    481d        .H      LDR      r0,[pc,#116] ; [0xe54] = 0x20000000
        0x00000de0:    8802        ..      LDRH     r2,[r0,#0]
        0x00000de2:    e00d        ..      B        0xe00 ; LCD_ShowChar + 104
        0x00000de4:    9807        ..      LDR      r0,[sp,#0x1c]
        0x00000de6:    210c        .!      MOVS     r1,#0xc
        0x00000de8:    4348        HC      MULS     r0,r1,r0
        0x00000dea:    491b        .I      LDR      r1,[pc,#108] ; [0xe58] = 0x181c
        0x00000dec:    e7f1        ..      B        0xdd2 ; LCD_ShowChar + 58
        0x00000dee:    9807        ..      LDR      r0,[sp,#0x1c]
        0x00000df0:    491a        .I      LDR      r1,[pc,#104] ; [0xe5c] = 0x1c90
        0x00000df2:    0100        ..      LSLS     r0,r0,#4
        0x00000df4:    e7ed        ..      B        0xdd2 ; LCD_ShowChar + 58
        0x00000df6:    980e        ..      LDR      r0,[sp,#0x38]
        0x00000df8:    2800        .(      CMP      r0,#0
        0x00000dfa:    d105        ..      BNE      0xe08 ; LCD_ShowChar + 112
        0x00000dfc:    4815        .H      LDR      r0,[pc,#84] ; [0xe54] = 0x20000000
        0x00000dfe:    8842        B.      LDRH     r2,[r0,#2]
        0x00000e00:    4621        !F      MOV      r1,r4
        0x00000e02:    9805        ..      LDR      r0,[sp,#0x14]
        0x00000e04:    f7fffd18    ....    BL       LCD_Fast_DrawPoint ; 0x838
        0x00000e08:    0678        x.      LSLS     r0,r7,#25
        0x00000e0a:    0e07        ..      LSRS     r7,r0,#24
        0x00000e0c:    4814        .H      LDR      r0,[pc,#80] ; [0xe60] = 0x20000014
        0x00000e0e:    1c64        d.      ADDS     r4,r4,#1
        0x00000e10:    8840        @.      LDRH     r0,[r0,#2]
        0x00000e12:    b2a4        ..      UXTH     r4,r4
        0x00000e14:    42a0        .B      CMP      r0,r4
        0x00000e16:    d919        ..      BLS      0xe4c ; LCD_ShowChar + 180
        0x00000e18:    9804        ..      LDR      r0,[sp,#0x10]
        0x00000e1a:    1a20         .      SUBS     r0,r4,r0
        0x00000e1c:    42a8        .B      CMP      r0,r5
        0x00000e1e:    d10a        ..      BNE      0xe36 ; LCD_ShowChar + 158
        0x00000e20:    9805        ..      LDR      r0,[sp,#0x14]
        0x00000e22:    9c04        ..      LDR      r4,[sp,#0x10]
        0x00000e24:    1c40        @.      ADDS     r0,r0,#1
        0x00000e26:    b280        ..      UXTH     r0,r0
        0x00000e28:    9005        ..      STR      r0,[sp,#0x14]
        0x00000e2a:    480d        .H      LDR      r0,[pc,#52] ; [0xe60] = 0x20000014
        0x00000e2c:    8801        ..      LDRH     r1,[r0,#0]
        0x00000e2e:    9805        ..      LDR      r0,[sp,#0x14]
        0x00000e30:    4281        .B      CMP      r1,r0
        0x00000e32:    d90b        ..      BLS      0xe4c ; LCD_ShowChar + 180
        0x00000e34:    e005        ..      B        0xe42 ; LCD_ShowChar + 170
        0x00000e36:    9803        ..      LDR      r0,[sp,#0xc]
        0x00000e38:    1c40        @.      ADDS     r0,r0,#1
        0x00000e3a:    b2c0        ..      UXTB     r0,r0
        0x00000e3c:    9003        ..      STR      r0,[sp,#0xc]
        0x00000e3e:    2808        .(      CMP      r0,#8
        0x00000e40:    d3cb        ..      BCC      0xdda ; LCD_ShowChar + 66
        0x00000e42:    1c76        v.      ADDS     r6,r6,#1
        0x00000e44:    b2f6        ..      UXTB     r6,r6
        0x00000e46:    9801        ..      LDR      r0,[sp,#4]
        0x00000e48:    4286        .B      CMP      r6,r0
        0x00000e4a:    d3b8        ..      BCC      0xdbe ; LCD_ShowChar + 38
        0x00000e4c:    b009        ..      ADD      sp,sp,#0x24
        0x00000e4e:    bdf0        ..      POP      {r4-r7,pc}
    $d
        0x00000e50:    00002280    ."..    DCD    8832
        0x00000e54:    20000000    ...     DCD    536870912
        0x00000e58:    0000181c    ....    DCD    6172
        0x00000e5c:    00001c90    ....    DCD    7312
        0x00000e60:    20000014    ...     DCD    536870932
    $t
    i.LCD_ShowNum
    LCD_ShowNum
        0x00000e64:    b5ff        ..      PUSH     {r0-r7,lr}
        0x00000e66:    b081        ..      SUB      sp,sp,#4
        0x00000e68:    2700        .'      MOVS     r7,#0
        0x00000e6a:    980a        ..      LDR      r0,[sp,#0x28]
        0x00000e6c:    461d        .F      MOV      r5,r3
        0x00000e6e:    463c        <F      MOV      r4,r7
        0x00000e70:    0846        F.      LSRS     r6,r0,#1
        0x00000e72:    e02d        -.      B        0xed0 ; LCD_ShowNum + 108
        0x00000e74:    1b28        (.      SUBS     r0,r5,r4
        0x00000e76:    1e40        @.      SUBS     r0,r0,#1
        0x00000e78:    b2c1        ..      UXTB     r1,r0
        0x00000e7a:    200a        .       MOVS     r0,#0xa
        0x00000e7c:    f7fffe3e    ..>.    BL       LCD_Pow ; 0xafc
        0x00000e80:    4601        .F      MOV      r1,r0
        0x00000e82:    9803        ..      LDR      r0,[sp,#0xc]
        0x00000e84:    f7fffa96    ....    BL       __aeabi_uidiv ; 0x3b4
        0x00000e88:    210a        .!      MOVS     r1,#0xa
        0x00000e8a:    f7fffa93    ....    BL       __aeabi_uidiv ; 0x3b4
        0x00000e8e:    2f00        ./      CMP      r7,#0
        0x00000e90:    d105        ..      BNE      0xe9e ; LCD_ShowNum + 58
        0x00000e92:    1e68        h.      SUBS     r0,r5,#1
        0x00000e94:    4284        .B      CMP      r4,r0
        0x00000e96:    da02        ..      BGE      0xe9e ; LCD_ShowNum + 58
        0x00000e98:    2900        .)      CMP      r1,#0
        0x00000e9a:    d00b        ..      BEQ      0xeb4 ; LCD_ShowNum + 80
        0x00000e9c:    2701        .'      MOVS     r7,#1
        0x00000e9e:    2000        .       MOVS     r0,#0
        0x00000ea0:    3130        01      ADDS     r1,r1,#0x30
        0x00000ea2:    9000        ..      STR      r0,[sp,#0]
        0x00000ea4:    b2ca        ..      UXTB     r2,r1
        0x00000ea6:    4630        0F      MOV      r0,r6
        0x00000ea8:    9901        ..      LDR      r1,[sp,#4]
        0x00000eaa:    4360        `C      MULS     r0,r4,r0
        0x00000eac:    1840        @.      ADDS     r0,r0,r1
        0x00000eae:    b280        ..      UXTH     r0,r0
        0x00000eb0:    9b0a        ..      LDR      r3,[sp,#0x28]
        0x00000eb2:    e008        ..      B        0xec6 ; LCD_ShowNum + 98
        0x00000eb4:    2000        .       MOVS     r0,#0
        0x00000eb6:    9000        ..      STR      r0,[sp,#0]
        0x00000eb8:    4630        0F      MOV      r0,r6
        0x00000eba:    9901        ..      LDR      r1,[sp,#4]
        0x00000ebc:    4360        `C      MULS     r0,r4,r0
        0x00000ebe:    1840        @.      ADDS     r0,r0,r1
        0x00000ec0:    9b0a        ..      LDR      r3,[sp,#0x28]
        0x00000ec2:    b280        ..      UXTH     r0,r0
        0x00000ec4:    2220         "      MOVS     r2,#0x20
        0x00000ec6:    9902        ..      LDR      r1,[sp,#8]
        0x00000ec8:    f7ffff66    ..f.    BL       LCD_ShowChar ; 0xd98
        0x00000ecc:    1c64        d.      ADDS     r4,r4,#1
        0x00000ece:    b2e4        ..      UXTB     r4,r4
        0x00000ed0:    42ac        .B      CMP      r4,r5
        0x00000ed2:    d3cf        ..      BCC      0xe74 ; LCD_ShowNum + 16
        0x00000ed4:    b005        ..      ADD      sp,sp,#0x14
        0x00000ed6:    bdf0        ..      POP      {r4-r7,pc}
    i.LCD_ShowString
    LCD_ShowString
        0x00000ed8:    b5ff        ..      PUSH     {r0-r7,lr}
        0x00000eda:    4604        .F      MOV      r4,r0
        0x00000edc:    b083        ..      SUB      sp,sp,#0xc
        0x00000ede:    b2c0        ..      UXTB     r0,r0
        0x00000ee0:    9002        ..      STR      r0,[sp,#8]
        0x00000ee2:    1910        ..      ADDS     r0,r2,r4
        0x00000ee4:    b280        ..      UXTH     r0,r0
        0x00000ee6:    460d        .F      MOV      r5,r1
        0x00000ee8:    9005        ..      STR      r0,[sp,#0x14]
        0x00000eea:    1958        X.      ADDS     r0,r3,r5
        0x00000eec:    b287        ..      UXTH     r7,r0
        0x00000eee:    980c        ..      LDR      r0,[sp,#0x30]
        0x00000ef0:    9e0d        ..      LDR      r6,[sp,#0x34]
        0x00000ef2:    0840        @.      LSRS     r0,r0,#1
        0x00000ef4:    9001        ..      STR      r0,[sp,#4]
        0x00000ef6:    e013        ..      B        0xf20 ; LCD_ShowString + 72
        0x00000ef8:    9805        ..      LDR      r0,[sp,#0x14]
        0x00000efa:    4284        .B      CMP      r4,r0
        0x00000efc:    d303        ..      BCC      0xf06 ; LCD_ShowString + 46
        0x00000efe:    980c        ..      LDR      r0,[sp,#0x30]
        0x00000f00:    9c02        ..      LDR      r4,[sp,#8]
        0x00000f02:    1828        (.      ADDS     r0,r5,r0
        0x00000f04:    b285        ..      UXTH     r5,r0
        0x00000f06:    42bd        .B      CMP      r5,r7
        0x00000f08:    d20f        ..      BCS      0xf2a ; LCD_ShowString + 82
        0x00000f0a:    2000        .       MOVS     r0,#0
        0x00000f0c:    9000        ..      STR      r0,[sp,#0]
        0x00000f0e:    4629        )F      MOV      r1,r5
        0x00000f10:    4620         F      MOV      r0,r4
        0x00000f12:    9b0c        ..      LDR      r3,[sp,#0x30]
        0x00000f14:    f7ffff40    ..@.    BL       LCD_ShowChar ; 0xd98
        0x00000f18:    9801        ..      LDR      r0,[sp,#4]
        0x00000f1a:    1900        ..      ADDS     r0,r0,r4
        0x00000f1c:    b284        ..      UXTH     r4,r0
        0x00000f1e:    1c76        v.      ADDS     r6,r6,#1
        0x00000f20:    7832        2x      LDRB     r2,[r6,#0]
        0x00000f22:    4610        .F      MOV      r0,r2
        0x00000f24:    3820         8      SUBS     r0,r0,#0x20
        0x00000f26:    285e        ^(      CMP      r0,#0x5e
        0x00000f28:    d9e6        ..      BLS      0xef8 ; LCD_ShowString + 32
        0x00000f2a:    b007        ..      ADD      sp,sp,#0x1c
        0x00000f2c:    bdf0        ..      POP      {r4-r7,pc}
        0x00000f2e:    0000        ..      MOVS     r0,r0
    i.LCD_WR_DATA
    LCD_WR_DATA
        0x00000f30:    b5f8        ..      PUSH     {r3-r7,lr}
        0x00000f32:    4c09        .L      LDR      r4,[pc,#36] ; [0xf58] = 0x40050000
        0x00000f34:    2501        .%      MOVS     r5,#1
        0x00000f36:    4607        .F      MOV      r7,r0
        0x00000f38:    6065        e`      STR      r5,[r4,#4]
        0x00000f3a:    2600        .&      MOVS     r6,#0
        0x00000f3c:    6026        &`      STR      r6,[r4,#0]
        0x00000f3e:    4628        (F      MOV      r0,r5
        0x00000f40:    f000f9de    ....    BL       delay_us ; 0x1300
        0x00000f44:    4638        8F      MOV      r0,r7
        0x00000f46:    f000f82f    ../.    BL       MakeData ; 0xfa8
        0x00000f4a:    60a6        .`      STR      r6,[r4,#8]
        0x00000f4c:    2001        .       MOVS     r0,#1
        0x00000f4e:    f000f9d7    ....    BL       delay_us ; 0x1300
        0x00000f52:    60a5        .`      STR      r5,[r4,#8]
        0x00000f54:    6025        %`      STR      r5,[r4,#0]
        0x00000f56:    bdf8        ..      POP      {r3-r7,pc}
    $d
        0x00000f58:    40050000    ...@    DCD    1074069504
    $t
    i.LCD_WR_REG
    LCD_WR_REG
        0x00000f5c:    b570        p.      PUSH     {r4-r6,lr}
        0x00000f5e:    4c09        .L      LDR      r4,[pc,#36] ; [0xf84] = 0x40050000
        0x00000f60:    2500        .%      MOVS     r5,#0
        0x00000f62:    4606        .F      MOV      r6,r0
        0x00000f64:    6065        e`      STR      r5,[r4,#4]
        0x00000f66:    6025        %`      STR      r5,[r4,#0]
        0x00000f68:    2001        .       MOVS     r0,#1
        0x00000f6a:    f000f9c9    ....    BL       delay_us ; 0x1300
        0x00000f6e:    4630        0F      MOV      r0,r6
        0x00000f70:    f000f81a    ....    BL       MakeData ; 0xfa8
        0x00000f74:    60a5        .`      STR      r5,[r4,#8]
        0x00000f76:    2001        .       MOVS     r0,#1
        0x00000f78:    f000f9c2    ....    BL       delay_us ; 0x1300
        0x00000f7c:    2001        .       MOVS     r0,#1
        0x00000f7e:    60a0        .`      STR      r0,[r4,#8]
        0x00000f80:    6020         `      STR      r0,[r4,#0]
        0x00000f82:    bd70        p.      POP      {r4-r6,pc}
    $d
        0x00000f84:    40050000    ...@    DCD    1074069504
    $t
    i.LCD_WriteRAM_Prepare
    LCD_WriteRAM_Prepare
        0x00000f88:    b510        ..      PUSH     {r4,lr}
        0x00000f8a:    4802        .H      LDR      r0,[pc,#8] ; [0xf94] = 0x20000014
        0x00000f8c:    8900        ..      LDRH     r0,[r0,#8]
        0x00000f8e:    f7ffffe5    ....    BL       LCD_WR_REG ; 0xf5c
        0x00000f92:    bd10        ..      POP      {r4,pc}
    $d
        0x00000f94:    20000014    ...     DCD    536870932
    $t
    i.LCD_WriteReg
    LCD_WriteReg
        0x00000f98:    b510        ..      PUSH     {r4,lr}
        0x00000f9a:    460c        .F      MOV      r4,r1
        0x00000f9c:    f7ffffde    ....    BL       LCD_WR_REG ; 0xf5c
        0x00000fa0:    4620         F      MOV      r0,r4
        0x00000fa2:    f7ffffc5    ....    BL       LCD_WR_DATA ; 0xf30
        0x00000fa6:    bd10        ..      POP      {r4,pc}
    i.MakeData
    MakeData
        0x00000fa8:    07c2        ..      LSLS     r2,r0,#31
        0x00000faa:    4919        .I      LDR      r1,[pc,#100] ; [0x1010] = 0x40050000
        0x00000fac:    0fd2        ..      LSRS     r2,r2,#31
        0x00000fae:    618a        .a      STR      r2,[r1,#0x18]
        0x00000fb0:    0782        ..      LSLS     r2,r0,#30
        0x00000fb2:    0fd2        ..      LSRS     r2,r2,#31
        0x00000fb4:    61ca        .a      STR      r2,[r1,#0x1c]
        0x00000fb6:    0742        B.      LSLS     r2,r0,#29
        0x00000fb8:    0fd2        ..      LSRS     r2,r2,#31
        0x00000fba:    620a        .b      STR      r2,[r1,#0x20]
        0x00000fbc:    0702        ..      LSLS     r2,r0,#28
        0x00000fbe:    0fd2        ..      LSRS     r2,r2,#31
        0x00000fc0:    624a        Jb      STR      r2,[r1,#0x24]
        0x00000fc2:    06c2        ..      LSLS     r2,r0,#27
        0x00000fc4:    0fd2        ..      LSRS     r2,r2,#31
        0x00000fc6:    628a        .b      STR      r2,[r1,#0x28]
        0x00000fc8:    0682        ..      LSLS     r2,r0,#26
        0x00000fca:    0fd2        ..      LSRS     r2,r2,#31
        0x00000fcc:    62ca        .b      STR      r2,[r1,#0x2c]
        0x00000fce:    0642        B.      LSLS     r2,r0,#25
        0x00000fd0:    0fd2        ..      LSRS     r2,r2,#31
        0x00000fd2:    630a        .c      STR      r2,[r1,#0x30]
        0x00000fd4:    0602        ..      LSLS     r2,r0,#24
        0x00000fd6:    0fd2        ..      LSRS     r2,r2,#31
        0x00000fd8:    634a        Jc      STR      r2,[r1,#0x34]
        0x00000fda:    05c2        ..      LSLS     r2,r0,#23
        0x00000fdc:    0fd2        ..      LSRS     r2,r2,#31
        0x00000fde:    638a        .c      STR      r2,[r1,#0x38]
        0x00000fe0:    0582        ..      LSLS     r2,r0,#22
        0x00000fe2:    0fd2        ..      LSRS     r2,r2,#31
        0x00000fe4:    63ca        .c      STR      r2,[r1,#0x3c]
        0x00000fe6:    0541        A.      LSLS     r1,r0,#21
        0x00000fe8:    0fca        ..      LSRS     r2,r1,#31
        0x00000fea:    4909        .I      LDR      r1,[pc,#36] ; [0x1010] = 0x40050000
        0x00000fec:    3140        @1      ADDS     r1,r1,#0x40
        0x00000fee:    600a        .`      STR      r2,[r1,#0]
        0x00000ff0:    0502        ..      LSLS     r2,r0,#20
        0x00000ff2:    0fd2        ..      LSRS     r2,r2,#31
        0x00000ff4:    604a        J`      STR      r2,[r1,#4]
        0x00000ff6:    04c2        ..      LSLS     r2,r0,#19
        0x00000ff8:    0fd2        ..      LSRS     r2,r2,#31
        0x00000ffa:    608a        .`      STR      r2,[r1,#8]
        0x00000ffc:    0482        ..      LSLS     r2,r0,#18
        0x00000ffe:    0fd2        ..      LSRS     r2,r2,#31
        0x00001000:    60ca        .`      STR      r2,[r1,#0xc]
        0x00001002:    0442        B.      LSLS     r2,r0,#17
        0x00001004:    0fd2        ..      LSRS     r2,r2,#31
        0x00001006:    610a        .a      STR      r2,[r1,#0x10]
        0x00001008:    0bc0        ..      LSRS     r0,r0,#15
        0x0000100a:    6148        Ha      STR      r0,[r1,#0x14]
        0x0000100c:    4770        pG      BX       lr
    $d
        0x0000100e:    0000        ..      DCW    0
        0x00001010:    40050000    ...@    DCD    1074069504
    $t
    i.ReadData
    ReadData
        0x00001014:    2000        .       MOVS     r0,#0
        0x00001016:    b510        ..      PUSH     {r4,lr}
        0x00001018:    4b07        .K      LDR      r3,[pc,#28] ; [0x1038] = 0x40050000
        0x0000101a:    4601        .F      MOV      r1,r0
        0x0000101c:    2201        ."      MOVS     r2,#1
        0x0000101e:    008c        ..      LSLS     r4,r1,#2
        0x00001020:    18e4        ..      ADDS     r4,r4,r3
        0x00001022:    69a4        .i      LDR      r4,[r4,#0x18]
        0x00001024:    2c01        .,      CMP      r4,#1
        0x00001026:    d103        ..      BNE      0x1030 ; ReadData + 28
        0x00001028:    4614        .F      MOV      r4,r2
        0x0000102a:    408c        .@      LSLS     r4,r4,r1
        0x0000102c:    1820         .      ADDS     r0,r4,r0
        0x0000102e:    b280        ..      UXTH     r0,r0
        0x00001030:    1c49        I.      ADDS     r1,r1,#1
        0x00001032:    2910        .)      CMP      r1,#0x10
        0x00001034:    dbf3        ..      BLT      0x101e ; ReadData + 10
        0x00001036:    bd10        ..      POP      {r4,pc}
    $d
        0x00001038:    40050000    ...@    DCD    1074069504
    $t
    i.ReadUART
    ReadUART
        0x0000103c:    2001        .       MOVS     r0,#1
        0x0000103e:    0780        ..      LSLS     r0,r0,#30
        0x00001040:    6900        .i      LDR      r0,[r0,#0x10]
        0x00001042:    b2c0        ..      UXTB     r0,r0
        0x00001044:    4770        pG      BX       lr
    i.ReadUARTState
    ReadUARTState
        0x00001046:    2001        .       MOVS     r0,#1
        0x00001048:    0780        ..      LSLS     r0,r0,#30
        0x0000104a:    6940        @i      LDR      r0,[r0,#0x14]
        0x0000104c:    b2c0        ..      UXTB     r0,r0
        0x0000104e:    4770        pG      BX       lr
    i.SYSInit
    SYSInit
        0x00001050:    b510        ..      PUSH     {r4,lr}
        0x00001052:    4903        .I      LDR      r1,[pc,#12] ; [0x1060] = 0xe000e100
        0x00001054:    203f        ?       MOVS     r0,#0x3f
        0x00001056:    6008        .`      STR      r0,[r1,#0]
        0x00001058:    2000        .       MOVS     r0,#0
        0x0000105a:    f000f803    ....    BL       Set_SysTick_CTRL ; 0x1064
        0x0000105e:    bd10        ..      POP      {r4,pc}
    $d
        0x00001060:    e000e100    ....    DCD    3758153984
    $t
    i.Set_SysTick_CTRL
    Set_SysTick_CTRL
        0x00001064:    4901        .I      LDR      r1,[pc,#4] ; [0x106c] = 0xe000e000
        0x00001066:    6108        .a      STR      r0,[r1,#0x10]
        0x00001068:    4770        pG      BX       lr
    $d
        0x0000106a:    0000        ..      DCW    0
        0x0000106c:    e000e000    ....    DCD    3758153728
    $t
    i.SysTickHandler
    SysTickHandler
        0x00001070:    4904        .I      LDR      r1,[pc,#16] ; [0x1084] = 0xe000e000
        0x00001072:    2000        .       MOVS     r0,#0
        0x00001074:    6108        .a      STR      r0,[r1,#0x10]
        0x00001076:    4804        .H      LDR      r0,[pc,#16] ; [0x1088] = 0xe000ed00
        0x00001078:    6841        Ah      LDR      r1,[r0,#4]
        0x0000107a:    2201        ."      MOVS     r2,#1
        0x0000107c:    0652        R.      LSLS     r2,r2,#25
        0x0000107e:    4311        .C      ORRS     r1,r1,r2
        0x00001080:    6041        A`      STR      r1,[r0,#4]
        0x00001082:    4770        pG      BX       lr
    $d
        0x00001084:    e000e000    ....    DCD    3758153728
        0x00001088:    e000ed00    ....    DCD    3758157056
    $t
    i.UARTHandle
    UARTHandle
        0x0000108c:    b510        ..      PUSH     {r4,lr}
        0x0000108e:    f7ffffd5    ....    BL       ReadUART ; 0x103c
        0x00001092:    4604        .F      MOV      r4,r0
        0x00001094:    a004        ..      ADR      r0,{pc}+0x14 ; 0x10a8
        0x00001096:    f000f80f    ....    BL       UARTString ; 0x10b8
        0x0000109a:    4620         F      MOV      r0,r4
        0x0000109c:    f000f81a    ....    BL       WriteUART ; 0x10d4
        0x000010a0:    200a        .       MOVS     r0,#0xa
        0x000010a2:    f000f817    ....    BL       WriteUART ; 0x10d4
        0x000010a6:    bd10        ..      POP      {r4,pc}
    $d
        0x000010a8:    74726f43    Cort    DCD    1953656643
        0x000010ac:    4d2d7865    ex-M    DCD    1294825573
        0x000010b0:    203a2030    0 :     DCD    540680240
        0x000010b4:    00000000    ....    DCD    0
    $t
    i.UARTString
    UARTString
        0x000010b8:    b570        p.      PUSH     {r4-r6,lr}
        0x000010ba:    4605        .F      MOV      r5,r0
        0x000010bc:    2400        .$      MOVS     r4,#0
        0x000010be:    e003        ..      B        0x10c8 ; UARTString + 16
        0x000010c0:    5d28        (]      LDRB     r0,[r5,r4]
        0x000010c2:    f000f807    ....    BL       WriteUART ; 0x10d4
        0x000010c6:    1c64        d.      ADDS     r4,r4,#1
        0x000010c8:    4628        (F      MOV      r0,r5
        0x000010ca:    f7fff951    ..Q.    BL       strlen ; 0x370
        0x000010ce:    42a0        .B      CMP      r0,r4
        0x000010d0:    d8f6        ..      BHI      0x10c0 ; UARTString + 8
        0x000010d2:    bd70        p.      POP      {r4-r6,pc}
    i.WriteUART
    WriteUART
        0x000010d4:    b500        ..      PUSH     {lr}
        0x000010d6:    4601        .F      MOV      r1,r0
        0x000010d8:    f7ffffb5    ....    BL       ReadUARTState ; 0x1046
        0x000010dc:    2800        .(      CMP      r0,#0
        0x000010de:    d1fb        ..      BNE      0x10d8 ; WriteUART + 4
        0x000010e0:    2001        .       MOVS     r0,#1
        0x000010e2:    0780        ..      LSLS     r0,r0,#30
        0x000010e4:    6181        .a      STR      r1,[r0,#0x18]
        0x000010e6:    bd00        ..      POP      {pc}
    i.__ARM_common_switch8
    __ARM_common_switch8
        0x000010e8:    b430        0.      PUSH     {r4,r5}
        0x000010ea:    4674        tF      MOV      r4,lr
        0x000010ec:    1e64        d.      SUBS     r4,r4,#1
        0x000010ee:    7825        %x      LDRB     r5,[r4,#0]
        0x000010f0:    1c64        d.      ADDS     r4,r4,#1
        0x000010f2:    42ab        .B      CMP      r3,r5
        0x000010f4:    d200        ..      BCS      0x10f8 ; __ARM_common_switch8 + 16
        0x000010f6:    461d        .F      MOV      r5,r3
        0x000010f8:    5d63        c]      LDRB     r3,[r4,r5]
        0x000010fa:    005b        [.      LSLS     r3,r3,#1
        0x000010fc:    18e3        ..      ADDS     r3,r4,r3
        0x000010fe:    bc30        0.      POP      {r4,r5}
        0x00001100:    4718        .G      BX       r3
        0x00001102:    0000        ..      MOVS     r0,r0
    i.cartoon_draw_bar
    cartoon_draw_bar
        0x00001104:    b538        8.      PUSH     {r3-r5,lr}
        0x00001106:    18cb        ..      ADDS     r3,r1,r3
        0x00001108:    2500        .%      MOVS     r5,#0
        0x0000110a:    b29c        ..      UXTH     r4,r3
        0x0000110c:    4613        .F      MOV      r3,r2
        0x0000110e:    2800        .(      CMP      r0,#0
        0x00001110:    d003        ..      BEQ      0x111a ; cartoon_draw_bar + 22
        0x00001112:    2801        .(      CMP      r0,#1
        0x00001114:    d101        ..      BNE      0x111a ; cartoon_draw_bar + 22
        0x00001116:    25ff        .%      MOVS     r5,#0xff
        0x00001118:    35e1        .5      ADDS     r5,r5,#0xe1
        0x0000111a:    29c7        .)      CMP      r1,#0xc7
        0x0000111c:    d205        ..      BCS      0x112a ; cartoon_draw_bar + 38
        0x0000111e:    2cc7        .,      CMP      r4,#0xc7
        0x00001120:    d901        ..      BLS      0x1126 ; cartoon_draw_bar + 34
        0x00001122:    21c7        .!      MOVS     r1,#0xc7
        0x00001124:    e001        ..      B        0x112a ; cartoon_draw_bar + 38
        0x00001126:    2cc7        .,      CMP      r4,#0xc7
        0x00001128:    d30a        ..      BCC      0x1140 ; cartoon_draw_bar + 60
        0x0000112a:    480c        .H      LDR      r0,[pc,#48] ; [0x115c] = 0x3e7
        0x0000112c:    4284        .B      CMP      r4,r0
        0x0000112e:    d903        ..      BLS      0x1138 ; cartoon_draw_bar + 52
        0x00001130:    4281        .B      CMP      r1,r0
        0x00001132:    d201        ..      BCS      0x1138 ; cartoon_draw_bar + 52
        0x00001134:    4604        .F      MOV      r4,r0
        0x00001136:    e005        ..      B        0x1144 ; cartoon_draw_bar + 64
        0x00001138:    4284        .B      CMP      r4,r0
        0x0000113a:    d903        ..      BLS      0x1144 ; cartoon_draw_bar + 64
        0x0000113c:    4281        .B      CMP      r1,r0
        0x0000113e:    d901        ..      BLS      0x1144 ; cartoon_draw_bar + 64
        0x00001140:    2000        .       MOVS     r0,#0
        0x00001142:    bd38        8.      POP      {r3-r5,pc}
        0x00001144:    203f        ?       MOVS     r0,#0x3f
        0x00001146:    0140        @.      LSLS     r0,r0,#5
        0x00001148:    39c8        .9      SUBS     r1,r1,#0xc8
        0x0000114a:    9000        ..      STR      r0,[sp,#0]
        0x0000114c:    3cc8        .<      SUBS     r4,r4,#0xc8
        0x0000114e:    b288        ..      UXTH     r0,r1
        0x00001150:    b2a2        ..      UXTH     r2,r4
        0x00001152:    4629        )F      MOV      r1,r5
        0x00001154:    f7fffb18    ....    BL       LCD_Color_Fill ; 0x788
        0x00001158:    2001        .       MOVS     r0,#1
        0x0000115a:    bd38        8.      POP      {r3-r5,pc}
    $d
        0x0000115c:    000003e7    ....    DCD    999
    $t
    i.cartoon_draw_bird
    cartoon_draw_bird
        0x00001160:    b5f3        ..      PUSH     {r0,r1,r4-r7,lr}
        0x00001162:    b081        ..      SUB      sp,sp,#4
        0x00001164:    460f        .F      MOV      r7,r1
        0x00001166:    2400        .$      MOVS     r4,#0
        0x00001168:    4620         F      MOV      r0,r4
        0x0000116a:    2164        d!      MOVS     r1,#0x64
        0x0000116c:    4348        HC      MULS     r0,r1,r0
        0x0000116e:    9901        ..      LDR      r1,[sp,#4]
        0x00001170:    2500        .%      MOVS     r5,#0
        0x00001172:    1846        F.      ADDS     r6,r0,r1
        0x00001174:    0068        h.      LSLS     r0,r5,#1
        0x00001176:    5a30        0Z      LDRH     r0,[r6,r0]
        0x00001178:    280d        .(      CMP      r0,#0xd
        0x0000117a:    d901        ..      BLS      0x1180 ; cartoon_draw_bird + 32
        0x0000117c:    2000        .       MOVS     r0,#0
        0x0000117e:    bdfe        ..      POP      {r1-r7,pc}
        0x00001180:    0003        ..      MOVS     r3,r0
        0x00001182:    f7ffffb1    ....    BL       __ARM_common_switch8 ; 0x10e8
    $d
        0x00001186:    630e        .c      DCW    25358
        0x00001188:    20181008    ...     DCD    538447880
        0x0000118c:    39183028    (0.9    DCD    957886504
        0x00001190:    524a2042    B JR    DCD    1380589634
        0x00001194:    635a        Zc      DCW    25434
    $t
        0x00001196:    8878        x.      LDRH     r0,[r7,#2]
        0x00001198:    1b00        ..      SUBS     r0,r0,r4
        0x0000119a:    b281        ..      UXTH     r1,r0
        0x0000119c:    8838        8.      LDRH     r0,[r7,#0]
        0x0000119e:    1940        @.      ADDS     r0,r0,r5
        0x000011a0:    b280        ..      UXTH     r0,r0
        0x000011a2:    2200        ."      MOVS     r2,#0
        0x000011a4:    e050        P.      B        0x1248 ; cartoon_draw_bird + 232
        0x000011a6:    8878        x.      LDRH     r0,[r7,#2]
        0x000011a8:    1b00        ..      SUBS     r0,r0,r4
        0x000011aa:    b281        ..      UXTH     r1,r0
        0x000011ac:    8838        8.      LDRH     r0,[r7,#0]
        0x000011ae:    1940        @.      ADDS     r0,r0,r5
        0x000011b0:    b280        ..      UXTH     r0,r0
        0x000011b2:    221f        ."      MOVS     r2,#0x1f
        0x000011b4:    e048        H.      B        0x1248 ; cartoon_draw_bird + 232
        0x000011b6:    8878        x.      LDRH     r0,[r7,#2]
        0x000011b8:    4a29        )J      LDR      r2,[pc,#164] ; [0x1260] = 0xf81f
        0x000011ba:    1b00        ..      SUBS     r0,r0,r4
        0x000011bc:    b281        ..      UXTH     r1,r0
        0x000011be:    8838        8.      LDRH     r0,[r7,#0]
        0x000011c0:    1940        @.      ADDS     r0,r0,r5
        0x000011c2:    b280        ..      UXTH     r0,r0
        0x000011c4:    e040        @.      B        0x1248 ; cartoon_draw_bird + 232
        0x000011c6:    8878        x.      LDRH     r0,[r7,#2]
        0x000011c8:    4a26        &J      LDR      r2,[pc,#152] ; [0x1264] = 0xffe0
        0x000011ca:    1b00        ..      SUBS     r0,r0,r4
        0x000011cc:    b281        ..      UXTH     r1,r0
        0x000011ce:    8838        8.      LDRH     r0,[r7,#0]
        0x000011d0:    1940        @.      ADDS     r0,r0,r5
        0x000011d2:    b280        ..      UXTH     r0,r0
        0x000011d4:    e038        8.      B        0x1248 ; cartoon_draw_bird + 232
        0x000011d6:    8878        x.      LDRH     r0,[r7,#2]
        0x000011d8:    4a23        #J      LDR      r2,[pc,#140] ; [0x1268] = 0x7ff
        0x000011da:    1b00        ..      SUBS     r0,r0,r4
        0x000011dc:    b281        ..      UXTH     r1,r0
        0x000011de:    8838        8.      LDRH     r0,[r7,#0]
        0x000011e0:    1940        @.      ADDS     r0,r0,r5
        0x000011e2:    b280        ..      UXTH     r0,r0
        0x000011e4:    e030        0.      B        0x1248 ; cartoon_draw_bird + 232
        0x000011e6:    8878        x.      LDRH     r0,[r7,#2]
        0x000011e8:    221f        ."      MOVS     r2,#0x1f
        0x000011ea:    1b00        ..      SUBS     r0,r0,r4
        0x000011ec:    b281        ..      UXTH     r1,r0
        0x000011ee:    8838        8.      LDRH     r0,[r7,#0]
        0x000011f0:    1940        @.      ADDS     r0,r0,r5
        0x000011f2:    b280        ..      UXTH     r0,r0
        0x000011f4:    02d2        ..      LSLS     r2,r2,#11
        0x000011f6:    e027        '.      B        0x1248 ; cartoon_draw_bird + 232
        0x000011f8:    8878        x.      LDRH     r0,[r7,#2]
        0x000011fa:    223f        ?"      MOVS     r2,#0x3f
        0x000011fc:    1b00        ..      SUBS     r0,r0,r4
        0x000011fe:    b281        ..      UXTH     r1,r0
        0x00001200:    8838        8.      LDRH     r0,[r7,#0]
        0x00001202:    1940        @.      ADDS     r0,r0,r5
        0x00001204:    b280        ..      UXTH     r0,r0
        0x00001206:    0152        R.      LSLS     r2,r2,#5
        0x00001208:    e01e        ..      B        0x1248 ; cartoon_draw_bird + 232
        0x0000120a:    8878        x.      LDRH     r0,[r7,#2]
        0x0000120c:    4a17        .J      LDR      r2,[pc,#92] ; [0x126c] = 0x7fff
        0x0000120e:    1b00        ..      SUBS     r0,r0,r4
        0x00001210:    b281        ..      UXTH     r1,r0
        0x00001212:    8838        8.      LDRH     r0,[r7,#0]
        0x00001214:    1940        @.      ADDS     r0,r0,r5
        0x00001216:    b280        ..      UXTH     r0,r0
        0x00001218:    e016        ..      B        0x1248 ; cartoon_draw_bird + 232
        0x0000121a:    8878        x.      LDRH     r0,[r7,#2]
        0x0000121c:    4a14        .J      LDR      r2,[pc,#80] ; [0x1270] = 0xbc40
        0x0000121e:    1b00        ..      SUBS     r0,r0,r4
        0x00001220:    b281        ..      UXTH     r1,r0
        0x00001222:    8838        8.      LDRH     r0,[r7,#0]
        0x00001224:    1940        @.      ADDS     r0,r0,r5
        0x00001226:    b280        ..      UXTH     r0,r0
        0x00001228:    e00e        ..      B        0x1248 ; cartoon_draw_bird + 232
        0x0000122a:    8878        x.      LDRH     r0,[r7,#2]
        0x0000122c:    4a11        .J      LDR      r2,[pc,#68] ; [0x1274] = 0xfc07
        0x0000122e:    1b00        ..      SUBS     r0,r0,r4
        0x00001230:    b281        ..      UXTH     r1,r0
        0x00001232:    8838        8.      LDRH     r0,[r7,#0]
        0x00001234:    1940        @.      ADDS     r0,r0,r5
        0x00001236:    b280        ..      UXTH     r0,r0
        0x00001238:    e006        ..      B        0x1248 ; cartoon_draw_bird + 232
        0x0000123a:    8878        x.      LDRH     r0,[r7,#2]
        0x0000123c:    4a0e        .J      LDR      r2,[pc,#56] ; [0x1278] = 0x8430
        0x0000123e:    1b00        ..      SUBS     r0,r0,r4
        0x00001240:    b281        ..      UXTH     r1,r0
        0x00001242:    8838        8.      LDRH     r0,[r7,#0]
        0x00001244:    1940        @.      ADDS     r0,r0,r5
        0x00001246:    b280        ..      UXTH     r0,r0
        0x00001248:    f7fffaf6    ....    BL       LCD_Fast_DrawPoint ; 0x838
        0x0000124c:    1c6d        m.      ADDS     r5,r5,#1
        0x0000124e:    b2ad        ..      UXTH     r5,r5
        0x00001250:    2d32        2-      CMP      r5,#0x32
        0x00001252:    d38f        ..      BCC      0x1174 ; cartoon_draw_bird + 20
        0x00001254:    1c64        d.      ADDS     r4,r4,#1
        0x00001256:    b2a4        ..      UXTH     r4,r4
        0x00001258:    2c32        2,      CMP      r4,#0x32
        0x0000125a:    d385        ..      BCC      0x1168 ; cartoon_draw_bird + 8
        0x0000125c:    2001        .       MOVS     r0,#1
        0x0000125e:    bdfe        ..      POP      {r1-r7,pc}
    $d
        0x00001260:    0000f81f    ....    DCD    63519
        0x00001264:    0000ffe0    ....    DCD    65504
        0x00001268:    000007ff    ....    DCD    2047
        0x0000126c:    00007fff    ....    DCD    32767
        0x00001270:    0000bc40    @...    DCD    48192
        0x00001274:    0000fc07    ....    DCD    64519
        0x00001278:    00008430    0...    DCD    33840
    $t
    i.cartoon_move_forward
    cartoon_move_forward
        0x0000127c:    2227        '"      MOVS     r2,#0x27
        0x0000127e:    01d2        ..      LSLS     r2,r2,#7
        0x00001280:    1889        ..      ADDS     r1,r1,r2
        0x00001282:    6a89        .j      LDR      r1,[r1,#0x28]
        0x00001284:    2300        .#      MOVS     r3,#0
        0x00001286:    88ca        ..      LDRH     r2,[r1,#6]
        0x00001288:    4282        .B      CMP      r2,r0
        0x0000128a:    d201        ..      BCS      0x1290 ; cartoon_move_forward + 20
        0x0000128c:    80cb        ..      STRH     r3,[r1,#6]
        0x0000128e:    e001        ..      B        0x1294 ; cartoon_move_forward + 24
        0x00001290:    1a12        ..      SUBS     r2,r2,r0
        0x00001292:    80ca        ..      STRH     r2,[r1,#6]
        0x00001294:    6889        .h      LDR      r1,[r1,#8]
        0x00001296:    2900        .)      CMP      r1,#0
        0x00001298:    d1f5        ..      BNE      0x1286 ; cartoon_move_forward + 10
        0x0000129a:    4770        pG      BX       lr
    i.cartoon_refresh
    cartoon_refresh
        0x0000129c:    b538        8.      PUSH     {r3-r5,lr}
        0x0000129e:    4605        .F      MOV      r5,r0
        0x000012a0:    480c        .H      LDR      r0,[pc,#48] ; [0x12d4] = 0xffff
        0x000012a2:    f7fffa41    ..A.    BL       LCD_Clear ; 0x728
        0x000012a6:    2027        '       MOVS     r0,#0x27
        0x000012a8:    01c0        ..      LSLS     r0,r0,#7
        0x000012aa:    182c        ,.      ADDS     r4,r5,r0
        0x000012ac:    8921        !.      LDRH     r1,[r4,#8]
        0x000012ae:    4668        hF      MOV      r0,sp
        0x000012b0:    8001        ..      STRH     r1,[r0,#0]
        0x000012b2:    8a21        !.      LDRH     r1,[r4,#0x10]
        0x000012b4:    8041        A.      STRH     r1,[r0,#2]
        0x000012b6:    4669        iF      MOV      r1,sp
        0x000012b8:    4628        (F      MOV      r0,r5
        0x000012ba:    f7ffff51    ..Q.    BL       cartoon_draw_bird ; 0x1160
        0x000012be:    6aa4        .j      LDR      r4,[r4,#0x28]
        0x000012c0:    2350        P#      MOVS     r3,#0x50
        0x000012c2:    88a2        ..      LDRH     r2,[r4,#4]
        0x000012c4:    88e1        ..      LDRH     r1,[r4,#6]
        0x000012c6:    8860        `.      LDRH     r0,[r4,#2]
        0x000012c8:    f7ffff1c    ....    BL       cartoon_draw_bar ; 0x1104
        0x000012cc:    68a4        .h      LDR      r4,[r4,#8]
        0x000012ce:    2c00        .,      CMP      r4,#0
        0x000012d0:    d1f6        ..      BNE      0x12c0 ; cartoon_refresh + 36
        0x000012d2:    bd38        8.      POP      {r3-r5,pc}
    $d
        0x000012d4:    0000ffff    ....    DCD    65535
    $t
    i.delay_ms
    delay_ms
        0x000012d8:    4907        .I      LDR      r1,[pc,#28] ; [0x12f8] = 0x61a8
        0x000012da:    4348        HC      MULS     r0,r1,r0
        0x000012dc:    4907        .I      LDR      r1,[pc,#28] ; [0x12fc] = 0xe000e000
        0x000012de:    6148        Ha      STR      r0,[r1,#0x14]
        0x000012e0:    2000        .       MOVS     r0,#0
        0x000012e2:    6188        .a      STR      r0,[r1,#0x18]
        0x000012e4:    2205        ."      MOVS     r2,#5
        0x000012e6:    610a        .a      STR      r2,[r1,#0x10]
        0x000012e8:    690a        .i      LDR      r2,[r1,#0x10]
        0x000012ea:    07d3        ..      LSLS     r3,r2,#31
        0x000012ec:    d001        ..      BEQ      0x12f2 ; delay_ms + 26
        0x000012ee:    03d2        ..      LSLS     r2,r2,#15
        0x000012f0:    d5fa        ..      BPL      0x12e8 ; delay_ms + 16
        0x000012f2:    6108        .a      STR      r0,[r1,#0x10]
        0x000012f4:    6188        .a      STR      r0,[r1,#0x18]
        0x000012f6:    4770        pG      BX       lr
    $d
        0x000012f8:    000061a8    .a..    DCD    25000
        0x000012fc:    e000e000    ....    DCD    3758153728
    $t
    i.delay_us
    delay_us
        0x00001300:    2119        .!      MOVS     r1,#0x19
        0x00001302:    4348        HC      MULS     r0,r1,r0
        0x00001304:    4906        .I      LDR      r1,[pc,#24] ; [0x1320] = 0xe000e000
        0x00001306:    6148        Ha      STR      r0,[r1,#0x14]
        0x00001308:    2000        .       MOVS     r0,#0
        0x0000130a:    6188        .a      STR      r0,[r1,#0x18]
        0x0000130c:    2205        ."      MOVS     r2,#5
        0x0000130e:    610a        .a      STR      r2,[r1,#0x10]
        0x00001310:    690a        .i      LDR      r2,[r1,#0x10]
        0x00001312:    07d3        ..      LSLS     r3,r2,#31
        0x00001314:    d001        ..      BEQ      0x131a ; delay_us + 26
        0x00001316:    03d2        ..      LSLS     r2,r2,#15
        0x00001318:    d5fa        ..      BPL      0x1310 ; delay_us + 16
        0x0000131a:    6108        .a      STR      r0,[r1,#0x10]
        0x0000131c:    6188        .a      STR      r0,[r1,#0x18]
        0x0000131e:    4770        pG      BX       lr
    $d
        0x00001320:    e000e000    ....    DCD    3758153728
    $t
    i.logic_collide
    logic_collide
        0x00001324:    b510        ..      PUSH     {r4,lr}
        0x00001326:    8a42        B.      LDRH     r2,[r0,#0x12]
        0x00001328:    e004        ..      B        0x1334 ; logic_collide + 16
        0x0000132a:    8a04        ..      LDRH     r4,[r0,#0x10]
        0x0000132c:    1ae3        ..      SUBS     r3,r4,r3
        0x0000132e:    2b50        P+      CMP      r3,#0x50
        0x00001330:    dd07        ..      BLE      0x1342 ; logic_collide + 30
        0x00001332:    6889        .h      LDR      r1,[r1,#8]
        0x00001334:    88cb        ..      LDRH     r3,[r1,#6]
        0x00001336:    4293        .B      CMP      r3,r2
        0x00001338:    d801        ..      BHI      0x133e ; logic_collide + 26
        0x0000133a:    2900        .)      CMP      r1,#0
        0x0000133c:    d1f5        ..      BNE      0x132a ; logic_collide + 6
        0x0000133e:    2000        .       MOVS     r0,#0
        0x00001340:    bd10        ..      POP      {r4,pc}
        0x00001342:    884b        K.      LDRH     r3,[r1,#2]
        0x00001344:    2b00        .+      CMP      r3,#0
        0x00001346:    d007        ..      BEQ      0x1358 ; logic_collide + 52
        0x00001348:    2b01        .+      CMP      r3,#1
        0x0000134a:    d1f2        ..      BNE      0x1332 ; logic_collide + 14
        0x0000134c:    8900        ..      LDRH     r0,[r0,#8]
        0x0000134e:    8889        ..      LDRH     r1,[r1,#4]
        0x00001350:    4288        .B      CMP      r0,r1
        0x00001352:    d3f4        ..      BCC      0x133e ; logic_collide + 26
        0x00001354:    2001        .       MOVS     r0,#1
        0x00001356:    bd10        ..      POP      {r4,pc}
        0x00001358:    89c2        ..      LDRH     r2,[r0,#0xe]
        0x0000135a:    8888        ..      LDRH     r0,[r1,#4]
        0x0000135c:    4282        .B      CMP      r2,r0
        0x0000135e:    d8ee        ..      BHI      0x133e ; logic_collide + 26
        0x00001360:    e7f8        ..      B        0x1354 ; logic_collide + 48
    i.logic_descend_down
    logic_descend_down
        0x00001362:    b510        ..      PUSH     {r4,lr}
        0x00001364:    89ca        ..      LDRH     r2,[r1,#0xe]
        0x00001366:    4282        .B      CMP      r2,r0
        0x00001368:    d30d        ..      BCC      0x1386 ; logic_descend_down + 36
        0x0000136a:    2200        ."      MOVS     r2,#0
        0x0000136c:    0053        S.      LSLS     r3,r2,#1
        0x0000136e:    185b        [.      ADDS     r3,r3,r1
        0x00001370:    891c        ..      LDRH     r4,[r3,#8]
        0x00001372:    1c52        R.      ADDS     r2,r2,#1
        0x00001374:    1a24        $.      SUBS     r4,r4,r0
        0x00001376:    811c        ..      STRH     r4,[r3,#8]
        0x00001378:    8b1c        ..      LDRH     r4,[r3,#0x18]
        0x0000137a:    b292        ..      UXTH     r2,r2
        0x0000137c:    1a24        $.      SUBS     r4,r4,r0
        0x0000137e:    831c        ..      STRH     r4,[r3,#0x18]
        0x00001380:    2a04        .*      CMP      r2,#4
        0x00001382:    d3f3        ..      BCC      0x136c ; logic_descend_down + 10
        0x00001384:    bd10        ..      POP      {r4,pc}
        0x00001386:    2000        .       MOVS     r0,#0
        0x00001388:    81c8        ..      STRH     r0,[r1,#0xe]
        0x0000138a:    8188        ..      STRH     r0,[r1,#0xc]
        0x0000138c:    2032        2       MOVS     r0,#0x32
        0x0000138e:    8148        H.      STRH     r0,[r1,#0xa]
        0x00001390:    8108        ..      STRH     r0,[r1,#8]
        0x00001392:    2005        .       MOVS     r0,#5
        0x00001394:    83c8        ..      STRH     r0,[r1,#0x1e]
        0x00001396:    8388        ..      STRH     r0,[r1,#0x1c]
        0x00001398:    202d        -       MOVS     r0,#0x2d
        0x0000139a:    8348        H.      STRH     r0,[r1,#0x1a]
        0x0000139c:    8308        ..      STRH     r0,[r1,#0x18]
        0x0000139e:    bd10        ..      POP      {r4,pc}
    i.logic_random_num
    logic_random_num
        0x000013a0:    b5f8        ..      PUSH     {r3-r7,lr}
        0x000013a2:    460c        .F      MOV      r4,r1
        0x000013a4:    4616        .F      MOV      r6,r2
        0x000013a6:    1b05        ..      SUBS     r5,r0,r4
        0x000013a8:    ce03        ..      LDM      r6!,{r0,r1}
        0x000013aa:    4a0c        .J      LDR      r2,[pc,#48] ; [0x13dc] = 0x41c64e6d
        0x000013ac:    2300        .#      MOVS     r3,#0
        0x000013ae:    17ef        ..      ASRS     r7,r5,#31
        0x000013b0:    3e08        .>      SUBS     r6,r6,#8
        0x000013b2:    f7feff44    ..D.    BL       __aeabi_lmul ; 0x23e
        0x000013b6:    4b0a        .K      LDR      r3,[pc,#40] ; [0x13e0] = 0x3039
        0x000013b8:    2200        ."      MOVS     r2,#0
        0x000013ba:    18c0        ..      ADDS     r0,r0,r3
        0x000013bc:    4151        QA      ADCS     r1,r1,r2
        0x000013be:    07da        ..      LSLS     r2,r3,#31
        0x000013c0:    2300        .#      MOVS     r3,#0
        0x000013c2:    f7feff54    ..T.    BL       __aeabi_uldivmod ; 0x26e
        0x000013c6:    c60c        ..      STM      r6!,{r2,r3}
        0x000013c8:    4610        .F      MOV      r0,r2
        0x000013ca:    4619        .F      MOV      r1,r3
        0x000013cc:    462a        *F      MOV      r2,r5
        0x000013ce:    463b        ;F      MOV      r3,r7
        0x000013d0:    f7feff4d    ..M.    BL       __aeabi_uldivmod ; 0x26e
        0x000013d4:    1910        ..      ADDS     r0,r2,r4
        0x000013d6:    1c40        @.      ADDS     r0,r0,#1
        0x000013d8:    b280        ..      UXTH     r0,r0
        0x000013da:    bdf8        ..      POP      {r3-r7,pc}
    $d
        0x000013dc:    41c64e6d    mN.A    DCD    1103515245
        0x000013e0:    00003039    90..    DCD    12345
    $t
    i.logic_rise_up
    logic_rise_up
        0x000013e4:    b510        ..      PUSH     {r4,lr}
        0x000013e6:    890a        ..      LDRH     r2,[r1,#8]
        0x000013e8:    1813        ..      ADDS     r3,r2,r0
        0x000013ea:    22ff        ."      MOVS     r2,#0xff
        0x000013ec:    32e1        .2      ADDS     r2,r2,#0xe1
        0x000013ee:    4293        .B      CMP      r3,r2
        0x000013f0:    d90d        ..      BLS      0x140e ; logic_rise_up + 42
        0x000013f2:    810a        ..      STRH     r2,[r1,#8]
        0x000013f4:    20ff        .       MOVS     r0,#0xff
        0x000013f6:    814a        J.      STRH     r2,[r1,#0xa]
        0x000013f8:    30b9        .0      ADDS     r0,r0,#0xb9
        0x000013fa:    8188        ..      STRH     r0,[r1,#0xc]
        0x000013fc:    81c8        ..      STRH     r0,[r1,#0xe]
        0x000013fe:    1f50        P.      SUBS     r0,r2,#5
        0x00001400:    8308        ..      STRH     r0,[r1,#0x18]
        0x00001402:    8348        H.      STRH     r0,[r1,#0x1a]
        0x00001404:    20ff        .       MOVS     r0,#0xff
        0x00001406:    30b4        .0      ADDS     r0,r0,#0xb4
        0x00001408:    8388        ..      STRH     r0,[r1,#0x1c]
        0x0000140a:    83c8        ..      STRH     r0,[r1,#0x1e]
        0x0000140c:    bd10        ..      POP      {r4,pc}
        0x0000140e:    2200        ."      MOVS     r2,#0
        0x00001410:    0053        S.      LSLS     r3,r2,#1
        0x00001412:    185b        [.      ADDS     r3,r3,r1
        0x00001414:    891c        ..      LDRH     r4,[r3,#8]
        0x00001416:    1c52        R.      ADDS     r2,r2,#1
        0x00001418:    1824        $.      ADDS     r4,r4,r0
        0x0000141a:    811c        ..      STRH     r4,[r3,#8]
        0x0000141c:    8b1c        ..      LDRH     r4,[r3,#0x18]
        0x0000141e:    b292        ..      UXTH     r2,r2
        0x00001420:    1824        $.      ADDS     r4,r4,r0
        0x00001422:    831c        ..      STRH     r4,[r3,#0x18]
        0x00001424:    2a04        .*      CMP      r2,#4
        0x00001426:    d3f3        ..      BCC      0x1410 ; logic_rise_up + 44
        0x00001428:    bd10        ..      POP      {r4,pc}
        0x0000142a:    0000        ..      MOVS     r0,r0
    i.main
    main
        0x0000142c:    b5f0        ..      PUSH     {r4-r7,lr}
        0x0000142e:    4b82        .K      LDR      r3,[pc,#520] ; [0x1638] = 0xffffec2c
        0x00001430:    449d        .D      ADD      sp,sp,r3
        0x00001432:    f7fffe0d    ....    BL       SYSInit ; 0x1050
        0x00001436:    4c81        .L      LDR      r4,[pc,#516] ; [0x163c] = 0x40050000
        0x00001438:    2000        .       MOVS     r0,#0
        0x0000143a:    6120         a      STR      r0,[r4,#0x10]
        0x0000143c:    2064        d       MOVS     r0,#0x64
        0x0000143e:    f7ffff4b    ..K.    BL       delay_ms ; 0x12d8
        0x00001442:    2001        .       MOVS     r0,#1
        0x00001444:    6120         a      STR      r0,[r4,#0x10]
        0x00001446:    f7fffa21    ..!.    BL       LCD_Init ; 0x88c
        0x0000144a:    497d        }I      LDR      r1,[pc,#500] ; [0x1640] = 0x1388
        0x0000144c:    4668        hF      MOV      r0,sp
        0x0000144e:    1840        @.      ADDS     r0,r0,r1
        0x00001450:    497c        |I      LDR      r1,[pc,#496] ; [0x1644] = 0x1380
        0x00001452:    4d7d        }M      LDR      r5,[pc,#500] ; [0x1648] = 0x20000010
        0x00001454:    4469        iD      ADD      r1,sp,r1
        0x00001456:    6448        Hd      STR      r0,[r1,#0x44]
        0x00001458:    6828        (h      LDR      r0,[r5,#0]
        0x0000145a:    f000f9a5    ....    BL       ui_welcome ; 0x17a8
        0x0000145e:    2800        .(      CMP      r0,#0
        0x00001460:    d1fa        ..      BNE      0x1458 ; main + 44
        0x00001462:    4978        xI      LDR      r1,[pc,#480] ; [0x1644] = 0x1380
        0x00001464:    2700        .'      MOVS     r7,#0
        0x00001466:    4469        iD      ADD      r1,sp,r1
        0x00001468:    870f        ..      STRH     r7,[r1,#0x38]
        0x0000146a:    2001        .       MOVS     r0,#1
        0x0000146c:    8748        H.      STRH     r0,[r1,#0x3a]
        0x0000146e:    8788        ..      STRH     r0,[r1,#0x3c]
        0x00001470:    20ff        .       MOVS     r0,#0xff
        0x00001472:    87cf        ..      STRH     r7,[r1,#0x3e]
        0x00001474:    302d        -0      ADDS     r0,r0,#0x2d
        0x00001476:    22ff        ."      MOVS     r2,#0xff
        0x00001478:    8108        ..      STRH     r0,[r1,#8]
        0x0000147a:    325f        _2      ADDS     r2,r2,#0x5f
        0x0000147c:    814a        J.      STRH     r2,[r1,#0xa]
        0x0000147e:    818a        ..      STRH     r2,[r1,#0xc]
        0x00001480:    81c8        ..      STRH     r0,[r1,#0xe]
        0x00001482:    20f0        .       MOVS     r0,#0xf0
        0x00001484:    8208        ..      STRH     r0,[r1,#0x10]
        0x00001486:    8248        H.      STRH     r0,[r1,#0x12]
        0x00001488:    20be        .       MOVS     r0,#0xbe
        0x0000148a:    8288        ..      STRH     r0,[r1,#0x14]
        0x0000148c:    82c8        ..      STRH     r0,[r1,#0x16]
        0x0000148e:    20ff        .       MOVS     r0,#0xff
        0x00001490:    3032        20      ADDS     r0,r0,#0x32
        0x00001492:    8308        ..      STRH     r0,[r1,#0x18]
        0x00001494:    1f52        R.      SUBS     r2,r2,#5
        0x00001496:    834a        J.      STRH     r2,[r1,#0x1a]
        0x00001498:    838a        ..      STRH     r2,[r1,#0x1c]
        0x0000149a:    83c8        ..      STRH     r0,[r1,#0x1e]
        0x0000149c:    20eb        .       MOVS     r0,#0xeb
        0x0000149e:    8408        ..      STRH     r0,[r1,#0x20]
        0x000014a0:    8448        H.      STRH     r0,[r1,#0x22]
        0x000014a2:    20c3        .       MOVS     r0,#0xc3
        0x000014a4:    8488        ..      STRH     r0,[r1,#0x24]
        0x000014a6:    84c8        ..      STRH     r0,[r1,#0x26]
        0x000014a8:    2200        ."      MOVS     r2,#0
        0x000014aa:    2001        .       MOVS     r0,#1
        0x000014ac:    634a        Jc      STR      r2,[r1,#0x34]
        0x000014ae:    6308        .c      STR      r0,[r1,#0x30]
        0x000014b0:    4616        .F      MOV      r6,r2
        0x000014b2:    200c        .       MOVS     r0,#0xc
        0x000014b4:    f7fefe6c    ..l.    BL       malloc ; 0x190
        0x000014b8:    4962        bI      LDR      r1,[pc,#392] ; [0x1644] = 0x1380
        0x000014ba:    4604        .F      MOV      r4,r0
        0x000014bc:    4469        iD      ADD      r1,sp,r1
        0x000014be:    6288        .b      STR      r0,[r1,#0x28]
        0x000014c0:    460a        .F      MOV      r2,r1
        0x000014c2:    8007        ..      STRH     r7,[r0,#0]
        0x000014c4:    217d        }!      MOVS     r1,#0x7d
        0x000014c6:    3230        02      ADDS     r2,r2,#0x30
        0x000014c8:    00c9        ..      LSLS     r1,r1,#3
        0x000014ca:    4860        `H      LDR      r0,[pc,#384] ; [0x164c] = 0x44c
        0x000014cc:    f7ffff68    ..h.    BL       logic_random_num ; 0x13a0
        0x000014d0:    80e0        ..      STRH     r0,[r4,#6]
        0x000014d2:    07c0        ..      LSLS     r0,r0,#31
        0x000014d4:    0fc0        ..      LSRS     r0,r0,#31
        0x000014d6:    8060        `.      STRH     r0,[r4,#2]
        0x000014d8:    4a5d        ]J      LDR      r2,[pc,#372] ; [0x1650] = 0x13b0
        0x000014da:    20ff        .       MOVS     r0,#0xff
        0x000014dc:    446a        jD      ADD      r2,sp,r2
        0x000014de:    2164        d!      MOVS     r1,#0x64
        0x000014e0:    307d        }0      ADDS     r0,r0,#0x7d
        0x000014e2:    f7ffff5d    ..].    BL       logic_random_num ; 0x13a0
        0x000014e6:    80a0        ..      STRH     r0,[r4,#4]
        0x000014e8:    60a7        .`      STR      r7,[r4,#8]
        0x000014ea:    4856        VH      LDR      r0,[pc,#344] ; [0x1644] = 0x1380
        0x000014ec:    4468        hD      ADD      r0,sp,r0
        0x000014ee:    8f47        G.      LDRH     r7,[r0,#0x3a]
        0x000014f0:    e068        h.      B        0x15c4 ; main + 408
        0x000014f2:    88e0        ..      LDRH     r0,[r4,#6]
        0x000014f4:    21e1        .!      MOVS     r1,#0xe1
        0x000014f6:    0089        ..      LSLS     r1,r1,#2
        0x000014f8:    4288        .B      CMP      r0,r1
        0x000014fa:    d81c        ..      BHI      0x1536 ; main + 266
        0x000014fc:    200c        .       MOVS     r0,#0xc
        0x000014fe:    f7fefe47    ..G.    BL       malloc ; 0x190
        0x00001502:    60a0        .`      STR      r0,[r4,#8]
        0x00001504:    4604        .F      MOV      r4,r0
        0x00001506:    2000        .       MOVS     r0,#0
        0x00001508:    1c76        v.      ADDS     r6,r6,#1
        0x0000150a:    60a0        .`      STR      r0,[r4,#8]
        0x0000150c:    4a50        PJ      LDR      r2,[pc,#320] ; [0x1650] = 0x13b0
        0x0000150e:    b2b6        ..      UXTH     r6,r6
        0x00001510:    217d        }!      MOVS     r1,#0x7d
        0x00001512:    8026        &.      STRH     r6,[r4,#0]
        0x00001514:    446a        jD      ADD      r2,sp,r2
        0x00001516:    00c9        ..      LSLS     r1,r1,#3
        0x00001518:    484c        LH      LDR      r0,[pc,#304] ; [0x164c] = 0x44c
        0x0000151a:    f7ffff41    ..A.    BL       logic_random_num ; 0x13a0
        0x0000151e:    80e0        ..      STRH     r0,[r4,#6]
        0x00001520:    07c0        ..      LSLS     r0,r0,#31
        0x00001522:    0fc0        ..      LSRS     r0,r0,#31
        0x00001524:    8060        `.      STRH     r0,[r4,#2]
        0x00001526:    4a4a        JJ      LDR      r2,[pc,#296] ; [0x1650] = 0x13b0
        0x00001528:    20ff        .       MOVS     r0,#0xff
        0x0000152a:    446a        jD      ADD      r2,sp,r2
        0x0000152c:    2164        d!      MOVS     r1,#0x64
        0x0000152e:    307d        }0      ADDS     r0,r0,#0x7d
        0x00001530:    f7ffff36    ..6.    BL       logic_random_num ; 0x13a0
        0x00001534:    80a0        ..      STRH     r0,[r4,#4]
        0x00001536:    6828        (h      LDR      r0,[r5,#0]
        0x00001538:    2801        .(      CMP      r0,#1
        0x0000153a:    d002        ..      BEQ      0x1542 ; main + 278
        0x0000153c:    2800        .(      CMP      r0,#0
        0x0000153e:    d00b        ..      BEQ      0x1558 ; main + 300
        0x00001540:    e014        ..      B        0x156c ; main + 320
        0x00001542:    4844        DH      LDR      r0,[pc,#272] ; [0x1654] = 0x2000000c
        0x00001544:    6800        .h      LDR      r0,[r0,#0]
        0x00001546:    2800        .(      CMP      r0,#0
        0x00001548:    d110        ..      BNE      0x156c ; main + 320
        0x0000154a:    483e        >H      LDR      r0,[pc,#248] ; [0x1644] = 0x1380
        0x0000154c:    4468        hD      ADD      r0,sp,r0
        0x0000154e:    6c41        Al      LDR      r1,[r0,#0x44]
        0x00001550:    200a        .       MOVS     r0,#0xa
        0x00001552:    f7ffff47    ..G.    BL       logic_rise_up ; 0x13e4
        0x00001556:    e009        ..      B        0x156c ; main + 320
        0x00001558:    483e        >H      LDR      r0,[pc,#248] ; [0x1654] = 0x2000000c
        0x0000155a:    6800        .h      LDR      r0,[r0,#0]
        0x0000155c:    2801        .(      CMP      r0,#1
        0x0000155e:    d105        ..      BNE      0x156c ; main + 320
        0x00001560:    4838        8H      LDR      r0,[pc,#224] ; [0x1644] = 0x1380
        0x00001562:    4468        hD      ADD      r0,sp,r0
        0x00001564:    6c41        Al      LDR      r1,[r0,#0x44]
        0x00001566:    200a        .       MOVS     r0,#0xa
        0x00001568:    f7fffefb    ....    BL       logic_descend_down ; 0x1362
        0x0000156c:    4669        iF      MOV      r1,sp
        0x0000156e:    2014        .       MOVS     r0,#0x14
        0x00001570:    f7fffe84    ....    BL       cartoon_move_forward ; 0x127c
        0x00001574:    4833        3H      LDR      r0,[pc,#204] ; [0x1644] = 0x1380
        0x00001576:    4468        hD      ADD      r0,sp,r0
        0x00001578:    6a80        .j      LDR      r0,[r0,#0x28]
        0x0000157a:    88c0        ..      LDRH     r0,[r0,#6]
        0x0000157c:    286e        n(      CMP      r0,#0x6e
        0x0000157e:    d20c        ..      BCS      0x159a ; main + 366
        0x00001580:    4830        0H      LDR      r0,[pc,#192] ; [0x1644] = 0x1380
        0x00001582:    4468        hD      ADD      r0,sp,r0
        0x00001584:    6a80        .j      LDR      r0,[r0,#0x28]
        0x00001586:    8801        ..      LDRH     r1,[r0,#0]
        0x00001588:    482e        .H      LDR      r0,[pc,#184] ; [0x1644] = 0x1380
        0x0000158a:    4468        hD      ADD      r0,sp,r0
        0x0000158c:    87c1        ..      STRH     r1,[r0,#0x3e]
        0x0000158e:    6a82        .j      LDR      r2,[r0,#0x28]
        0x00001590:    6891        .h      LDR      r1,[r2,#8]
        0x00001592:    6281        .b      STR      r1,[r0,#0x28]
        0x00001594:    4610        .F      MOV      r0,r2
        0x00001596:    f7fefe2c    ..,.    BL       free ; 0x1f2
        0x0000159a:    4668        hF      MOV      r0,sp
        0x0000159c:    f7fffe7e    ..~.    BL       cartoon_refresh ; 0x129c
        0x000015a0:    4828        (H      LDR      r0,[pc,#160] ; [0x1644] = 0x1380
        0x000015a2:    4468        hD      ADD      r0,sp,r0
        0x000015a4:    6a81        .j      LDR      r1,[r0,#0x28]
        0x000015a6:    6c40        @l      LDR      r0,[r0,#0x44]
        0x000015a8:    f7fffebc    ....    BL       logic_collide ; 0x1324
        0x000015ac:    2800        .(      CMP      r0,#0
        0x000015ae:    d003        ..      BEQ      0x15b8 ; main + 396
        0x000015b0:    4924        $I      LDR      r1,[pc,#144] ; [0x1644] = 0x1380
        0x000015b2:    2000        .       MOVS     r0,#0
        0x000015b4:    4469        iD      ADD      r1,sp,r1
        0x000015b6:    8788        ..      STRH     r0,[r1,#0x3c]
        0x000015b8:    2021        !       MOVS     r0,#0x21
        0x000015ba:    f7fffe8d    ....    BL       delay_ms ; 0x12d8
        0x000015be:    6828        (h      LDR      r0,[r5,#0]
        0x000015c0:    2801        .(      CMP      r0,#1
        0x000015c2:    d010        ..      BEQ      0x15e6 ; main + 442
        0x000015c4:    2f00        ./      CMP      r7,#0
        0x000015c6:    d194        ..      BNE      0x14f2 ; main + 198
        0x000015c8:    4822        "H      LDR      r0,[pc,#136] ; [0x1654] = 0x2000000c
        0x000015ca:    6801        .h      LDR      r1,[r0,#0]
        0x000015cc:    6828        (h      LDR      r0,[r5,#0]
        0x000015ce:    f000f89b    ....    BL       ui_pause ; 0x1708
        0x000015d2:    2800        .(      CMP      r0,#0
        0x000015d4:    d00c        ..      BEQ      0x15f0 ; main + 452
        0x000015d6:    491b        .I      LDR      r1,[pc,#108] ; [0x1644] = 0x1380
        0x000015d8:    2001        .       MOVS     r0,#1
        0x000015da:    4469        iD      ADD      r1,sp,r1
        0x000015dc:    8748        H.      STRH     r0,[r1,#0x3a]
        0x000015de:    8f88        ..      LDRH     r0,[r1,#0x3c]
        0x000015e0:    2800        .(      CMP      r0,#0
        0x000015e2:    d182        ..      BNE      0x14ea ; main + 190
        0x000015e4:    e008        ..      B        0x15f8 ; main + 460
        0x000015e6:    4917        .I      LDR      r1,[pc,#92] ; [0x1644] = 0x1380
        0x000015e8:    2000        .       MOVS     r0,#0
        0x000015ea:    4469        iD      ADD      r1,sp,r1
        0x000015ec:    8748        H.      STRH     r0,[r1,#0x3a]
        0x000015ee:    e7eb        ..      B        0x15c8 ; main + 412
        0x000015f0:    4914        .I      LDR      r1,[pc,#80] ; [0x1644] = 0x1380
        0x000015f2:    2000        .       MOVS     r0,#0
        0x000015f4:    4469        iD      ADD      r1,sp,r1
        0x000015f6:    8788        ..      STRH     r0,[r1,#0x3c]
        0x000015f8:    4816        .H      LDR      r0,[pc,#88] ; [0x1654] = 0x2000000c
        0x000015fa:    8fca        ..      LDRH     r2,[r1,#0x3e]
        0x000015fc:    6801        .h      LDR      r1,[r0,#0]
        0x000015fe:    6828        (h      LDR      r0,[r5,#0]
        0x00001600:    f000f82a    ..*.    BL       ui_end ; 0x1658
        0x00001604:    2800        .(      CMP      r0,#0
        0x00001606:    d107        ..      BNE      0x1618 ; main + 492
        0x00001608:    e00d        ..      B        0x1626 ; main + 506
        0x0000160a:    490e        .I      LDR      r1,[pc,#56] ; [0x1644] = 0x1380
        0x0000160c:    4469        iD      ADD      r1,sp,r1
        0x0000160e:    6a88        .j      LDR      r0,[r1,#0x28]
        0x00001610:    6880        .h      LDR      r0,[r0,#8]
        0x00001612:    6288        .b      STR      r0,[r1,#0x28]
        0x00001614:    f7fefded    ....    BL       free ; 0x1f2
        0x00001618:    480a        .H      LDR      r0,[pc,#40] ; [0x1644] = 0x1380
        0x0000161a:    4468        hD      ADD      r0,sp,r0
        0x0000161c:    6a80        .j      LDR      r0,[r0,#0x28]
        0x0000161e:    2800        .(      CMP      r0,#0
        0x00001620:    d100        ..      BNE      0x1624 ; main + 504
        0x00001622:    e719        ..      B        0x1458 ; main + 44
        0x00001624:    e7f1        ..      B        0x160a ; main + 478
        0x00001626:    2064        d       MOVS     r0,#0x64
        0x00001628:    f7fffe56    ..V.    BL       delay_ms ; 0x12d8
        0x0000162c:    4b08        .K      LDR      r3,[pc,#32] ; [0x1650] = 0x13b0
        0x0000162e:    2000        .       MOVS     r0,#0
        0x00001630:    3324        $3      ADDS     r3,r3,#0x24
        0x00001632:    449d        .D      ADD      sp,sp,r3
        0x00001634:    bdf0        ..      POP      {r4-r7,pc}
    $d
        0x00001636:    0000        ..      DCW    0
        0x00001638:    ffffec2c    ,...    DCD    4294962220
        0x0000163c:    40050000    ...@    DCD    1074069504
        0x00001640:    00001388    ....    DCD    5000
        0x00001644:    00001380    ....    DCD    4992
        0x00001648:    20000010    ...     DCD    536870928
        0x0000164c:    0000044c    L...    DCD    1100
        0x00001650:    000013b0    ....    DCD    5040
        0x00001654:    2000000c    ...     DCD    536870924
    $t
    i.ui_end
    ui_end
        0x00001658:    b5f7        ..      PUSH     {r0-r2,r4-r7,lr}
        0x0000165a:    4605        .F      MOV      r5,r0
        0x0000165c:    a021        !.      ADR      r0,{pc}+0x88 ; 0x16e4
        0x0000165e:    b08c        ..      SUB      sp,sp,#0x30
        0x00001660:    460e        .F      MOV      r6,r1
        0x00001662:    6800        .h      LDR      r0,[r0,#0]
        0x00001664:    a120         .      ADR      r1,{pc}+0x84 ; 0x16e8
        0x00001666:    900a        ..      STR      r0,[sp,#0x28]
        0x00001668:    c903        ..      LDM      r1,{r0,r1}
        0x0000166a:    9109        ..      STR      r1,[sp,#0x24]
        0x0000166c:    9008        ..      STR      r0,[sp,#0x20]
        0x0000166e:    2218        ."      MOVS     r2,#0x18
        0x00001670:    a11f        ..      ADR      r1,{pc}+0x80 ; 0x16f0
        0x00001672:    a802        ..      ADD      r0,sp,#8
        0x00001674:    f7fefd44    ..D.    BL       __aeabi_memcpy4 ; 0x100
        0x00001678:    af0a        ..      ADD      r7,sp,#0x28
        0x0000167a:    2418        .$      MOVS     r4,#0x18
        0x0000167c:    21ff        .!      MOVS     r1,#0xff
        0x0000167e:    20ff        .       MOVS     r0,#0xff
        0x00001680:    231e        .#      MOVS     r3,#0x1e
        0x00001682:    226c        l"      MOVS     r2,#0x6c
        0x00001684:    3141        A1      ADDS     r1,r1,#0x41
        0x00001686:    305b        [0      ADDS     r0,r0,#0x5b
        0x00001688:    9701        ..      STR      r7,[sp,#4]
        0x0000168a:    9400        ..      STR      r4,[sp,#0]
        0x0000168c:    f7fffc24    ..$.    BL       LCD_ShowString ; 0xed8
        0x00001690:    a808        ..      ADD      r0,sp,#0x20
        0x00001692:    9001        ..      STR      r0,[sp,#4]
        0x00001694:    20ff        .       MOVS     r0,#0xff
        0x00001696:    231e        .#      MOVS     r3,#0x1e
        0x00001698:    22b4        ."      MOVS     r2,#0xb4
        0x0000169a:    21c8        .!      MOVS     r1,#0xc8
        0x0000169c:    9400        ..      STR      r4,[sp,#0]
        0x0000169e:    3001        .0      ADDS     r0,#1
        0x000016a0:    f7fffc1a    ....    BL       LCD_ShowString ; 0xed8
        0x000016a4:    20ff        .       MOVS     r0,#0xff
        0x000016a6:    2303        .#      MOVS     r3,#3
        0x000016a8:    9400        ..      STR      r4,[sp,#0]
        0x000016aa:    21c8        .!      MOVS     r1,#0xc8
        0x000016ac:    30b5        .0      ADDS     r0,r0,#0xb5
        0x000016ae:    9a0e        ..      LDR      r2,[sp,#0x38]
        0x000016b0:    f7fffbd8    ....    BL       LCD_ShowNum ; 0xe64
        0x000016b4:    a902        ..      ADD      r1,sp,#8
        0x000016b6:    200c        .       MOVS     r0,#0xc
        0x000016b8:    22ff        ."      MOVS     r2,#0xff
        0x000016ba:    9101        ..      STR      r1,[sp,#4]
        0x000016bc:    9000        ..      STR      r0,[sp,#0]
        0x000016be:    230f        .#      MOVS     r3,#0xf
        0x000016c0:    32b1        .2      ADDS     r2,r2,#0xb1
        0x000016c2:    2182        .!      MOVS     r1,#0x82
        0x000016c4:    20b8        .       MOVS     r0,#0xb8
        0x000016c6:    f7fffc07    ....    BL       LCD_ShowString ; 0xed8
        0x000016ca:    2d01        .-      CMP      r5,#1
        0x000016cc:    d101        ..      BNE      0x16d2 ; ui_end + 122
        0x000016ce:    2e00        ..      CMP      r6,#0
        0x000016d0:    d006        ..      BEQ      0x16e0 ; ui_end + 136
        0x000016d2:    2e01        ..      CMP      r6,#1
        0x000016d4:    d1d2        ..      BNE      0x167c ; ui_end + 36
        0x000016d6:    2d00        .-      CMP      r5,#0
        0x000016d8:    d1d0        ..      BNE      0x167c ; ui_end + 36
        0x000016da:    2001        .       MOVS     r0,#1
        0x000016dc:    b00f        ..      ADD      sp,sp,#0x3c
        0x000016de:    bdf0        ..      POP      {r4-r7,pc}
        0x000016e0:    2000        .       MOVS     r0,#0
        0x000016e2:    e7fb        ..      B        0x16dc ; ui_end + 132
    $d
        0x000016e4:    00444e45    END.    DCD    4476485
        0x000016e8:    726f6353    Scor    DCD    1919902547
        0x000016ec:    00003a65    e:..    DCD    14949
        0x000016f0:    61656c50    Plea    DCD    1634036816
        0x000016f4:    50206573    se P    DCD    1344300403
        0x000016f8:    73736572    ress    DCD    1936942450
        0x000016fc:    646e6520     end    DCD    1684956448
        0x00001700:    206f7420     to     DCD    544175136
        0x00001704:    74697845    Exit    DCD    1953069125
    $t
    i.ui_pause
    ui_pause
        0x00001708:    b5f0        ..      PUSH     {r4-r7,lr}
        0x0000170a:    460d        .F      MOV      r5,r1
        0x0000170c:    4604        .F      MOV      r4,r0
        0x0000170e:    a117        ..      ADR      r1,{pc}+0x5e ; 0x176c
        0x00001710:    c903        ..      LDM      r1,{r0,r1}
        0x00001712:    b091        ..      SUB      sp,sp,#0x44
        0x00001714:    9110        ..      STR      r1,[sp,#0x40]
        0x00001716:    900f        ..      STR      r0,[sp,#0x3c]
        0x00001718:    2234        4"      MOVS     r2,#0x34
        0x0000171a:    a116        ..      ADR      r1,{pc}+0x5a ; 0x1774
        0x0000171c:    a802        ..      ADD      r0,sp,#8
        0x0000171e:    f7fefcef    ....    BL       __aeabi_memcpy4 ; 0x100
        0x00001722:    ae0f        ..      ADD      r6,sp,#0x3c
        0x00001724:    af02        ..      ADD      r7,sp,#8
        0x00001726:    2018        .       MOVS     r0,#0x18
        0x00001728:    9000        ..      STR      r0,[sp,#0]
        0x0000172a:    21ff        .!      MOVS     r1,#0xff
        0x0000172c:    20ff        .       MOVS     r0,#0xff
        0x0000172e:    231e        .#      MOVS     r3,#0x1e
        0x00001730:    22b4        ."      MOVS     r2,#0xb4
        0x00001732:    3141        A1      ADDS     r1,r1,#0x41
        0x00001734:    9601        ..      STR      r6,[sp,#4]
        0x00001736:    3037        70      ADDS     r0,r0,#0x37
        0x00001738:    f7fffbce    ....    BL       LCD_ShowString ; 0xed8
        0x0000173c:    200c        .       MOVS     r0,#0xc
        0x0000173e:    22ff        ."      MOVS     r2,#0xff
        0x00001740:    9000        ..      STR      r0,[sp,#0]
        0x00001742:    2328        (#      MOVS     r3,#0x28
        0x00001744:    32b1        .2      ADDS     r2,r2,#0xb1
        0x00001746:    2182        .!      MOVS     r1,#0x82
        0x00001748:    9701        ..      STR      r7,[sp,#4]
        0x0000174a:    20b8        .       MOVS     r0,#0xb8
        0x0000174c:    f7fffbc4    ....    BL       LCD_ShowString ; 0xed8
        0x00001750:    2c01        .,      CMP      r4,#1
        0x00001752:    d101        ..      BNE      0x1758 ; ui_pause + 80
        0x00001754:    2d00        .-      CMP      r5,#0
        0x00001756:    d006        ..      BEQ      0x1766 ; ui_pause + 94
        0x00001758:    2d01        .-      CMP      r5,#1
        0x0000175a:    d1e4        ..      BNE      0x1726 ; ui_pause + 30
        0x0000175c:    2c00        .,      CMP      r4,#0
        0x0000175e:    d1e2        ..      BNE      0x1726 ; ui_pause + 30
        0x00001760:    2001        .       MOVS     r0,#1
        0x00001762:    b011        ..      ADD      sp,sp,#0x44
        0x00001764:    bdf0        ..      POP      {r4-r7,pc}
        0x00001766:    2000        .       MOVS     r0,#0
        0x00001768:    e7fb        ..      B        0x1762 ; ui_pause + 90
    $d
        0x0000176a:    0000        ..      DCW    0
        0x0000176c:    53554150    PAUS    DCD    1398096208
        0x00001770:    00000045    E...    DCD    69
        0x00001774:    61656c50    Plea    DCD    1634036816
        0x00001778:    50206573    se P    DCD    1344300403
        0x0000177c:    73736572    ress    DCD    1936942450
        0x00001780:    646e6520     end    DCD    1684956448
        0x00001784:    206f7420     to     DCD    544175136
        0x00001788:    74697845    Exit    DCD    1953069125
        0x0000178c:    20726f20     or     DCD    544370464
        0x00001790:    73657250    Pres    DCD    1936028240
        0x00001794:    6f632073    s co    DCD    1868767347
        0x00001798:    6f74206e    n to    DCD    1869881454
        0x0000179c:    6e6f4320     Con    DCD    1852785440
        0x000017a0:    756e6974    tinu    DCD    1970170228
        0x000017a4:    00000065    e...    DCD    101
    $t
    i.ui_welcome
    ui_welcome
        0x000017a8:    b5f0        ..      PUSH     {r4-r7,lr}
        0x000017aa:    4604        .F      MOV      r4,r0
        0x000017ac:    a112        ..      ADR      r1,{pc}+0x4c ; 0x17f8
        0x000017ae:    c903        ..      LDM      r1,{r0,r1}
        0x000017b0:    b08b        ..      SUB      sp,sp,#0x2c
        0x000017b2:    910a        ..      STR      r1,[sp,#0x28]
        0x000017b4:    9009        ..      STR      r0,[sp,#0x24]
        0x000017b6:    221c        ."      MOVS     r2,#0x1c
        0x000017b8:    a111        ..      ADR      r1,{pc}+0x48 ; 0x1800
        0x000017ba:    a802        ..      ADD      r0,sp,#8
        0x000017bc:    f7fefca0    ....    BL       __aeabi_memcpy4 ; 0x100
        0x000017c0:    ad09        ..      ADD      r5,sp,#0x24
        0x000017c2:    ae02        ..      ADD      r6,sp,#8
        0x000017c4:    2718        .'      MOVS     r7,#0x18
        0x000017c6:    21ff        .!      MOVS     r1,#0xff
        0x000017c8:    20ff        .       MOVS     r0,#0xff
        0x000017ca:    231e        .#      MOVS     r3,#0x1e
        0x000017cc:    22b4        ."      MOVS     r2,#0xb4
        0x000017ce:    3141        A1      ADDS     r1,r1,#0x41
        0x000017d0:    3037        70      ADDS     r0,r0,#0x37
        0x000017d2:    9700        ..      STR      r7,[sp,#0]
        0x000017d4:    9501        ..      STR      r5,[sp,#4]
        0x000017d6:    f7fffb7f    ....    BL       LCD_ShowString ; 0xed8
        0x000017da:    200c        .       MOVS     r0,#0xc
        0x000017dc:    22ff        ."      MOVS     r2,#0xff
        0x000017de:    9000        ..      STR      r0,[sp,#0]
        0x000017e0:    230f        .#      MOVS     r3,#0xf
        0x000017e2:    32f9        .2      ADDS     r2,r2,#0xf9
        0x000017e4:    2182        .!      MOVS     r1,#0x82
        0x000017e6:    9601        ..      STR      r6,[sp,#4]
        0x000017e8:    2094        .       MOVS     r0,#0x94
        0x000017ea:    f7fffb75    ..u.    BL       LCD_ShowString ; 0xed8
        0x000017ee:    2c01        .,      CMP      r4,#1
        0x000017f0:    d1e9        ..      BNE      0x17c6 ; ui_welcome + 30
        0x000017f2:    2000        .       MOVS     r0,#0
        0x000017f4:    b00b        ..      ADD      sp,sp,#0x2c
        0x000017f6:    bdf0        ..      POP      {r4-r7,pc}
    $d
        0x000017f8:    52415453    STAR    DCD    1380013139
        0x000017fc:    00000054    T...    DCD    84
        0x00001800:    61656c50    Plea    DCD    1634036816
        0x00001804:    50206573    se P    DCD    1344300403
        0x00001808:    73736572    ress    DCD    1936942450
        0x0000180c:    61747320     sta    DCD    1635021600
        0x00001810:    74207472    rt t    DCD    1948284018
        0x00001814:    7453206f    o St    DCD    1951604847
        0x00001818:    00746172    rat.    DCD    7627122
    $d.realdata
    .constdata
    asc2_1206
        0x0000181c:    00000000    ....    DCD    0
        0x00001820:    00000000    ....    DCD    0
        0x00001824:    00000000    ....    DCD    0
        0x00001828:    00000000    ....    DCD    0
        0x0000182c:    0000403f    ?@..    DCD    16447
        0x00001830:    00000000    ....    DCD    0
        0x00001834:    00300000    ..0.    DCD    3145728
        0x00001838:    00300040    @.0.    DCD    3145792
        0x0000183c:    00000040    @...    DCD    64
        0x00001840:    c00b0009    ....    DCD    3221946377
        0x00001844:    c00b003d    =...    DCD    3221946429
        0x00001848:    0009003d    =...    DCD    589885
        0x0000184c:    4024c018    ..$@    DCD    1076150296
        0x00001850:    4022e07f    .."@    DCD    1076027519
        0x00001854:    00008031    1...    DCD    32817
        0x00001858:    c0240018    ..$.    DCD    3223584792
        0x0000185c:    800d001b    ....    DCD    2148335643
        0x00001860:    80014032    2@..    DCD    2147565618
        0x00001864:    401c8003    ...@    DCD    1075609603
        0x00001868:    801c4027    '@..    DCD    2149335079
        0x0000186c:    40004007    .@.@    DCD    1073758215
        0x00001870:    00600010    ..`.    DCD    6291472
        0x00001874:    00000000    ....    DCD    0
        0x00001878:    00000000    ....    DCD    0
        0x0000187c:    00000000    ....    DCD    0
        0x00001880:    801f0000    ....    DCD    2149515264
        0x00001884:    20404020     @@     DCD    541081632
        0x00001888:    20400000    ..@     DCD    541065216
        0x0000188c:    801f4020     @..    DCD    2149531680
        0x00001890:    00000000    ....    DCD    0
        0x00001894:    00060009    ....    DCD    393225
        0x00001898:    0006801f    ....    DCD    426015
        0x0000189c:    00000009    ....    DCD    9
        0x000018a0:    00040004    ....    DCD    262148
        0x000018a4:    0004803f    ?...    DCD    294975
        0x000018a8:    00000004    ....    DCD    4
        0x000018ac:    60001000    ...`    DCD    1610616832
        0x000018b0:    00000000    ....    DCD    0
        0x000018b4:    00000000    ....    DCD    0
        0x000018b8:    00040004    ....    DCD    262148
        0x000018bc:    00040004    ....    DCD    262148
        0x000018c0:    00000004    ....    DCD    4
        0x000018c4:    40000000    ...@    DCD    1073741824
        0x000018c8:    00000000    ....    DCD    0
        0x000018cc:    00000000    ....    DCD    0
        0x000018d0:    c0012000    . ..    DCD    3221299200
        0x000018d4:    00380006    ..8.    DCD    3670022
        0x000018d8:    00000040    @...    DCD    64
        0x000018dc:    4020801f    .. @    DCD    1075871775
        0x000018e0:    40204020     @ @    DCD    1075855392
        0x000018e4:    0000801f    ....    DCD    32799
        0x000018e8:    40100000    ...@    DCD    1074790400
        0x000018ec:    4000c03f    ?..@    DCD    1073791039
        0x000018f0:    00000000    ....    DCD    0
        0x000018f4:    4021c018    ..!@    DCD    1075953688
        0x000018f8:    40244022    "@$@    DCD    1076117538
        0x000018fc:    00004018    .@..    DCD    16408
        0x00001900:    40208010    .. @    DCD    1075871760
        0x00001904:    40244024    $@$@    DCD    1076117540
        0x00001908:    0000801b    ....    DCD    32795
        0x0000190c:    000d0002    ....    DCD    851970
        0x00001910:    c03f0011    ..?.    DCD    3225354257
        0x00001914:    00004001    .@..    DCD    16385
        0x00001918:    4024803c    <.$@    DCD    1076133948
        0x0000191c:    40244024    $@$@    DCD    1076117540
        0x00001920:    00008023    #...    DCD    32803
        0x00001924:    4024801f    ..$@    DCD    1076133919
        0x00001928:    40344024    $@4@    DCD    1077166116
        0x0000192c:    00008003    ....    DCD    32771
        0x00001930:    00200030    0. .    DCD    2097200
        0x00001934:    0038c027    '.8.    DCD    3719207
        0x00001938:    00000020     ...    DCD    32
        0x0000193c:    4024801b    ..$@    DCD    1076133915
        0x00001940:    40244024    $@$@    DCD    1076117540
        0x00001944:    0000801b    ....    DCD    32795
        0x00001948:    c022001c    ..".    DCD    3223453724
        0x0000194c:    40224022    "@"@    DCD    1075986466
        0x00001950:    0000801f    ....    DCD    32799
        0x00001954:    00000000    ....    DCD    0
        0x00001958:    00004008    .@..    DCD    16392
        0x0000195c:    00000000    ....    DCD    0
        0x00001960:    00000000    ....    DCD    0
        0x00001964:    00006004    .`..    DCD    24580
        0x00001968:    00000000    ....    DCD    0
        0x0000196c:    00040000    ....    DCD    262144
        0x00001970:    0011000a    ....    DCD    1114122
        0x00001974:    40408020     .@@    DCD    1077968928
        0x00001978:    00090009    ....    DCD    589833
        0x0000197c:    00090009    ....    DCD    589833
        0x00001980:    00000009    ....    DCD    9
        0x00001984:    40400000    ..@@    DCD    1077936128
        0x00001988:    00118020     ...    DCD    1146912
        0x0000198c:    0004000a    ....    DCD    262154
        0x00001990:    00200018    .. .    DCD    2097176
        0x00001994:    00244023    #@$.    DCD    2375715
        0x00001998:    00000018    ....    DCD    24
        0x0000199c:    4020801f    .. @    DCD    1075871775
        0x000019a0:    40294027    '@)@    DCD    1076445223
        0x000019a4:    0000401f    .@..    DCD    16415
        0x000019a8:    c0074000    .@..    DCD    3221700608
        0x000019ac:    000f0039    9...    DCD    983097
        0x000019b0:    4000c001    ...@    DCD    1073790977
        0x000019b4:    c03f4020     @?.    DCD    3225370656
        0x000019b8:    40244024    $@$@    DCD    1076117540
        0x000019bc:    0000801b    ....    DCD    32795
        0x000019c0:    4020801f    .. @    DCD    1075871775
        0x000019c4:    40204020     @ @    DCD    1075855392
        0x000019c8:    00008030    0...    DCD    32816
        0x000019cc:    c03f4020     @?.    DCD    3225370656
        0x000019d0:    40204020     @ @    DCD    1075855392
        0x000019d4:    0000801f    ....    DCD    32799
        0x000019d8:    c03f4020     @?.    DCD    3225370656
        0x000019dc:    402e4024    $@.@    DCD    1076772900
        0x000019e0:    0000c030    0...    DCD    49200
        0x000019e4:    c03f4020     @?.    DCD    3225370656
        0x000019e8:    002e4024    $@..    DCD    3031076
        0x000019ec:    00000030    0...    DCD    48
        0x000019f0:    8010000f    ....    DCD    2148532239
        0x000019f4:    40224020     @"@    DCD    1075986464
        0x000019f8:    00028033    3...    DCD    163891
        0x000019fc:    c03f4020     @?.    DCD    3225370656
        0x00001a00:    00040004    ....    DCD    262148
        0x00001a04:    4020c03f    ?. @    DCD    1075888191
        0x00001a08:    40204020     @ @    DCD    1075855392
        0x00001a0c:    4020c03f    ?. @    DCD    1075888191
        0x00001a10:    00004020     @..    DCD    16416
        0x00001a14:    20206000    .`      DCD    538992640
        0x00001a18:    c03f2020      ?.    DCD    3225362464
        0x00001a1c:    00200020     . .    DCD    2097184
        0x00001a20:    c03f4020     @?.    DCD    3225370656
        0x00001a24:    000b4024    $@..    DCD    737316
        0x00001a28:    4020c030    0. @    DCD    1075888176
        0x00001a2c:    c03f4020     @?.    DCD    3225370656
        0x00001a30:    40004020     @.@    DCD    1073758240
        0x00001a34:    c0004000    .@..    DCD    3221241856
        0x00001a38:    003cc03f    ?.<.    DCD    3981375
        0x00001a3c:    003cc003    ..<.    DCD    3981315
        0x00001a40:    0000c03f    ?...    DCD    49215
        0x00001a44:    c03f4020     @?.    DCD    3225370656
        0x00001a48:    0023400c    .@#.    DCD    2310156
        0x00001a4c:    0020c03f    ?. .    DCD    2146367
        0x00001a50:    4020801f    .. @    DCD    1075871775
        0x00001a54:    40204020     @ @    DCD    1075855392
        0x00001a58:    0000801f    ....    DCD    32799
        0x00001a5c:    c03f4020     @?.    DCD    3225370656
        0x00001a60:    00244024    $@$.    DCD    2375716
        0x00001a64:    00000018    ....    DCD    24
        0x00001a68:    4021801f    ..!@    DCD    1075937311
        0x00001a6c:    e0204021    !@ .    DCD    3760209953
        0x00001a70:    0000a01f    ....    DCD    40991
        0x00001a74:    c03f4020     @?.    DCD    3225370656
        0x00001a78:    00264024    $@&.    DCD    2506788
        0x00001a7c:    4000c019    ...@    DCD    1073791001
        0x00001a80:    4024c018    ..$@    DCD    1076150296
        0x00001a84:    40224024    $@"@    DCD    1075986468
        0x00001a88:    00008031    1...    DCD    32817
        0x00001a8c:    40200030    0. @    DCD    1075839024
        0x00001a90:    4020c03f    ?. @    DCD    1075888191
        0x00001a94:    00000030    0...    DCD    48
        0x00001a98:    803f0020     .?.    DCD    2151612448
        0x00001a9c:    40004000    .@.@    DCD    1073758208
        0x00001aa0:    0020803f    ?. .    DCD    2129983
        0x00001aa4:    003e0020     .>.    DCD    4063264
        0x00001aa8:    0007c001    ....    DCD    507905
        0x00001aac:    00200038    8. .    DCD    2097208
        0x00001ab0:    c0070038    8...    DCD    3221684280
        0x00001ab4:    c007003c    <...    DCD    3221684284
        0x00001ab8:    00000038    8...    DCD    56
        0x00001abc:    c0394020     @9.    DCD    3224977440
        0x00001ac0:    c0390006    ..9.    DCD    3224961030
        0x00001ac4:    00004020     @..    DCD    16416
        0x00001ac8:    40380020     .8@    DCD    1077411872
        0x00001acc:    4038c007    ..8@    DCD    1077460999
        0x00001ad0:    00000020     ...    DCD    32
        0x00001ad4:    c0214030    0@!.    DCD    3223404592
        0x00001ad8:    40384026    &@8@    DCD    1077428262
        0x00001adc:    0000c020     ...    DCD    49184
        0x00001ae0:    00000000    ....    DCD    0
        0x00001ae4:    2040e07f    ..@     DCD    541122687
        0x00001ae8:    00002040    @ ..    DCD    8256
        0x00001aec:    00700000    ..p.    DCD    7340032
        0x00001af0:    8003000c    ....    DCD    2147680268
        0x00001af4:    00004000    .@..    DCD    16384
        0x00001af8:    20400000    ..@     DCD    541065216
        0x00001afc:    e07f2040    @ ..    DCD    3766427712
        0x00001b00:    00000000    ....    DCD    0
        0x00001b04:    00200000    .. .    DCD    2097152
        0x00001b08:    00200040    @. .    DCD    2097216
        0x00001b0c:    00000000    ....    DCD    0
        0x00001b10:    10001000    ....    DCD    268439552
        0x00001b14:    10001000    ....    DCD    268439552
        0x00001b18:    10001000    ....    DCD    268439552
        0x00001b1c:    00000000    ....    DCD    0
        0x00001b20:    00000040    @...    DCD    64
        0x00001b24:    00000000    ....    DCD    0
        0x00001b28:    80020000    ....    DCD    2147614720
        0x00001b2c:    40054005    .@.@    DCD    1074085893
        0x00001b30:    4000c003    ...@    DCD    1073790979
        0x00001b34:    c03f0020     .?.    DCD    3225354272
        0x00001b38:    40044004    .@.@    DCD    1074020356
        0x00001b3c:    00008003    ....    DCD    32771
        0x00001b40:    80030000    ....    DCD    2147680256
        0x00001b44:    40044004    .@.@    DCD    1074020356
        0x00001b48:    00004006    .@..    DCD    16390
        0x00001b4c:    80030000    ....    DCD    2147680256
        0x00001b50:    40244004    .@$@    DCD    1076117508
        0x00001b54:    4000c03f    ?..@    DCD    1073791039
        0x00001b58:    80030000    ....    DCD    2147680256
        0x00001b5c:    40054005    .@.@    DCD    1074085893
        0x00001b60:    00004003    .@..    DCD    16387
        0x00001b64:    40040000    ...@    DCD    1074003968
        0x00001b68:    4024c01f    ..$@    DCD    1076150303
        0x00001b6c:    00204024    $@ .    DCD    2113572
        0x00001b70:    e0020000    ....    DCD    3758227456
        0x00001b74:    50055005    .P.P    DCD    1342525445
        0x00001b78:    20045006    .P.     DCD    537153542
        0x00001b7c:    c03f4020     @?.    DCD    3225370656
        0x00001b80:    00044004    .@..    DCD    278532
        0x00001b84:    4000c003    ...@    DCD    1073790979
        0x00001b88:    40040000    ...@    DCD    1074003968
        0x00001b8c:    4000c027    '..@    DCD    1073791015
        0x00001b90:    00000000    ....    DCD    0
        0x00001b94:    10001000    ....    DCD    268439552
        0x00001b98:    e0271004    ..'.    DCD    3760656388
        0x00001b9c:    00000000    ....    DCD    0
        0x00001ba0:    c03f4020     @?.    DCD    3225370656
        0x00001ba4:    00074001    .@..    DCD    475137
        0x00001ba8:    4004c004    ...@    DCD    1074053124
        0x00001bac:    40204020     @ @    DCD    1075855392
        0x00001bb0:    4000c03f    ?..@    DCD    1073791039
        0x00001bb4:    00004000    .@..    DCD    16384
        0x00001bb8:    0004c007    ....    DCD    311303
        0x00001bbc:    0004c007    ....    DCD    311303
        0x00001bc0:    0000c003    ....    DCD    49155
        0x00001bc4:    c0074004    .@..    DCD    3221700612
        0x00001bc8:    00044004    .@..    DCD    278532
        0x00001bcc:    4000c003    ...@    DCD    1073790979
        0x00001bd0:    80030000    ....    DCD    2147680256
        0x00001bd4:    40044004    .@.@    DCD    1074020356
        0x00001bd8:    00008003    ....    DCD    32771
        0x00001bdc:    f0071004    ....    DCD    4026994692
        0x00001be0:    40045004    .P.@    DCD    1074024452
        0x00001be4:    00008003    ....    DCD    32771
        0x00001be8:    80030000    ....    DCD    2147680256
        0x00001bec:    50044004    .@.P    DCD    1342455812
        0x00001bf0:    1000f007    ....    DCD    268496903
        0x00001bf4:    c0074004    .@..    DCD    3221700612
        0x00001bf8:    00044002    .@..    DCD    278530
        0x00001bfc:    00000004    ....    DCD    4
        0x00001c00:    40060000    ...@    DCD    1074135040
        0x00001c04:    40054005    .@.@    DCD    1074085893
        0x00001c08:    0000c004    ....    DCD    49156
        0x00001c0c:    00040000    ....    DCD    262144
        0x00001c10:    4004801f    ...@    DCD    1074036767
        0x00001c14:    00004000    .@..    DCD    16384
        0x00001c18:    80070004    ....    DCD    2147942404
        0x00001c1c:    40044000    .@.@    DCD    1074020352
        0x00001c20:    4000c007    ...@    DCD    1073790983
        0x00001c24:    00070004    ....    DCD    458756
        0x00001c28:    8001c004    ....    DCD    2147598340
        0x00001c2c:    00040006    ....    DCD    262150
        0x00001c30:    c0010006    ....    DCD    3221291014
        0x00001c34:    c0010007    ....    DCD    3221291015
        0x00001c38:    00000006    ....    DCD    6
        0x00001c3c:    c0064004    .@..    DCD    3221635076
        0x00001c40:    c0060001    ....    DCD    3221618689
        0x00001c44:    00004004    .@..    DCD    16388
        0x00001c48:    10071004    ....    DCD    268898308
        0x00001c4c:    8001e004    ....    DCD    2147606532
        0x00001c50:    00040006    ....    DCD    262150
        0x00001c54:    40040000    ...@    DCD    1074003968
        0x00001c58:    4006c005    ...@    DCD    1074184197
        0x00001c5c:    00004004    .@..    DCD    16388
        0x00001c60:    00000000    ....    DCD    0
        0x00001c64:    e07b0004    ..{.    DCD    3766157316
        0x00001c68:    00002040    @ ..    DCD    8256
        0x00001c6c:    00000000    ....    DCD    0
        0x00001c70:    f0ff0000    ....    DCD    4043243520
        0x00001c74:    00000000    ....    DCD    0
        0x00001c78:    20400000    ..@     DCD    541065216
        0x00001c7c:    0004e07b    {...    DCD    319611
        0x00001c80:    00000000    ....    DCD    0
        0x00001c84:    00800040    @...    DCD    8388672
        0x00001c88:    00200040    @. .    DCD    2097216
        0x00001c8c:    00400020     .@.    DCD    4194336
    asc2_1608
        0x00001c90:    00000000    ....    DCD    0
        0x00001c94:    00000000    ....    DCD    0
        0x00001c98:    00000000    ....    DCD    0
        0x00001c9c:    00000000    ....    DCD    0
        0x00001ca0:    00000000    ....    DCD    0
        0x00001ca4:    cc1f0000    ....    DCD    3424583680
        0x00001ca8:    00000c00    ....    DCD    3072
        0x00001cac:    00000000    ....    DCD    0
        0x00001cb0:    00080000    ....    DCD    524288
        0x00001cb4:    00600030    0.`.    DCD    6291504
        0x00001cb8:    00300008    ..0.    DCD    3145736
        0x00001cbc:    00000060    `...    DCD    96
        0x00001cc0:    fc032002    . ..    DCD    4228063234
        0x00001cc4:    2002201e    . .     DCD    537010206
        0x00001cc8:    201efc03    ...     DCD    538901507
        0x00001ccc:    00002002    . ..    DCD    8194
        0x00001cd0:    180e0000    ....    DCD    403570688
        0x00001cd4:    ff3f0411    ..?.    DCD    4282319889
        0x00001cd8:    780c8410    ...x    DCD    2014086160
        0x00001cdc:    00000000    ....    DCD    0
        0x00001ce0:    8410000f    ....    DCD    2215641103
        0x00001ce4:    c000380f    .8..    DCD    3221239823
        0x00001ce8:    84187807    .x..    DCD    2216196103
        0x00001cec:    00007800    .x..    DCD    30720
        0x00001cf0:    840f7800    .x..    DCD    2215606272
        0x00001cf4:    2411c410    ...$    DCD    605144080
        0x00001cf8:    e400980e    ....    DCD    3825244174
        0x00001cfc:    08008400    ....    DCD    134251520
        0x00001d00:    00680008    ..h.    DCD    6815752
        0x00001d04:    00000070    p...    DCD    112
        0x00001d08:    00000000    ....    DCD    0
        0x00001d0c:    00000000    ....    DCD    0
        0x00001d10:    00000000    ....    DCD    0
        0x00001d14:    e0070000    ....    DCD    3758555136
        0x00001d18:    04201818    .. .    DCD    69212184
        0x00001d1c:    00000240    @...    DCD    576
        0x00001d20:    02400000    ..@.    DCD    37748736
        0x00001d24:    18180420     ...    DCD    404227104
        0x00001d28:    0000e007    ....    DCD    57351
        0x00001d2c:    00000000    ....    DCD    0
        0x00001d30:    40024002    .@.@    DCD    1073889282
        0x00001d34:    f00f8001    ....    DCD    4027547649
        0x00001d38:    40028001    ...@    DCD    1073905665
        0x00001d3c:    00004002    .@..    DCD    16386
        0x00001d40:    80008000    ....    DCD    2147516416
        0x00001d44:    f80f8000    ....    DCD    4161765376
        0x00001d48:    80008000    ....    DCD    2147516416
        0x00001d4c:    00008000    ....    DCD    32768
        0x00001d50:    0d000100    ....    DCD    218104064
        0x00001d54:    00000e00    ....    DCD    3584
        0x00001d58:    00000000    ....    DCD    0
        0x00001d5c:    00000000    ....    DCD    0
        0x00001d60:    80000000    ....    DCD    2147483648
        0x00001d64:    80008000    ....    DCD    2147516416
        0x00001d68:    80008000    ....    DCD    2147516416
        0x00001d6c:    80008000    ....    DCD    2147516416
        0x00001d70:    0c000000    ....    DCD    201326592
        0x00001d74:    00000c00    ....    DCD    3072
        0x00001d78:    00000000    ....    DCD    0
        0x00001d7c:    00000000    ....    DCD    0
        0x00001d80:    06000000    ....    DCD    100663296
        0x00001d84:    60001800    ...`    DCD    1610618880
        0x00001d88:    00068001    ....    DCD    425985
        0x00001d8c:    00200018    .. .    DCD    2097176
        0x00001d90:    f0070000    ....    DCD    4026990592
        0x00001d94:    04100808    ....    DCD    68159496
        0x00001d98:    08080410    ....    DCD    134743056
        0x00001d9c:    0000f007    ....    DCD    61447
        0x00001da0:    04080000    ....    DCD    67633152
        0x00001da4:    fc1f0408    ....    DCD    4229891080
        0x00001da8:    04000400    ....    DCD    67109888
        0x00001dac:    00000000    ....    DCD    0
        0x00001db0:    0c0e0000    ....    DCD    202244096
        0x00001db4:    24101410    ...$    DCD    605033488
        0x00001db8:    84114410    .D..    DCD    2215724048
        0x00001dbc:    00000c0e    ....    DCD    3086
        0x00001dc0:    180c0000    ....    DCD    403439616
        0x00001dc4:    04110410    ....    DCD    68224016
        0x00001dc8:    88120411    ....    DCD    2282882065
        0x00001dcc:    0000700c    .p..    DCD    28684
        0x00001dd0:    e0000000    ....    DCD    3758096384
        0x00001dd4:    24042003    . .$    DCD    604250115
        0x00001dd8:    fc1f2408    .$..    DCD    4229899272
        0x00001ddc:    00002400    .$..    DCD    9216
        0x00001de0:    981f0000    ....    DCD    2552168448
        0x00001de4:    04118410    ....    DCD    68256784
        0x00001de8:    88100411    ....    DCD    2282750993
        0x00001dec:    00007010    .p..    DCD    28688
        0x00001df0:    f0070000    ....    DCD    4026990592
        0x00001df4:    04118808    ....    DCD    68257800
        0x00001df8:    88180411    ....    DCD    2283275281
        0x00001dfc:    00007000    .p..    DCD    28672
        0x00001e00:    001c0000    ....    DCD    1835008
        0x00001e04:    fc100010    ....    DCD    4228907024
        0x00001e08:    001c0013    ....    DCD    1835027
        0x00001e0c:    00000010    ....    DCD    16
        0x00001e10:    380e0000    ...8    DCD    940441600
        0x00001e14:    84104411    .D..    DCD    2215658513
        0x00001e18:    44118410    ...D    DCD    1141998608
        0x00001e1c:    0000380e    .8..    DCD    14350
        0x00001e20:    00070000    ....    DCD    458752
        0x00001e24:    44108c08    ...D    DCD    1141935112
        0x00001e28:    88084410    .D..    DCD    2282243088
        0x00001e2c:    0000f007    ....    DCD    61447
        0x00001e30:    00000000    ....    DCD    0
        0x00001e34:    0c030000    ....    DCD    201523200
        0x00001e38:    00000c03    ....    DCD    3075
        0x00001e3c:    00000000    ....    DCD    0
        0x00001e40:    00000000    ....    DCD    0
        0x00001e44:    06010100    ....    DCD    100729088
        0x00001e48:    00000000    ....    DCD    0
        0x00001e4c:    00000000    ....    DCD    0
        0x00001e50:    80000000    ....    DCD    2147483648
        0x00001e54:    20024001    .@.     DCD    537018369
        0x00001e58:    08081004    ....    DCD    134746116
        0x00001e5c:    00000410    ....    DCD    1040
        0x00001e60:    20022002    . .     DCD    537010178
        0x00001e64:    20022002    . .     DCD    537010178
        0x00001e68:    20022002    . .     DCD    537010178
        0x00001e6c:    00002002    . ..    DCD    8194
        0x00001e70:    04100000    ....    DCD    68157440
        0x00001e74:    10040808    ....    DCD    268699656
        0x00001e78:    40012002    . .@    DCD    1073815554
        0x00001e7c:    00008000    ....    DCD    32768
        0x00001e80:    000e0000    ....    DCD    917504
        0x00001e84:    0c100012    ....    DCD    202375186
        0x00001e88:    80106c10    .l..    DCD    2148559888
        0x00001e8c:    0000000f    ....    DCD    15
        0x00001e90:    180ce003    ....    DCD    403496963
        0x00001e94:    2414e413    ...$    DCD    605348883
        0x00001e98:    2808c417    ...(    DCD    671663127
        0x00001e9c:    0000d007    ....    DCD    53255
        0x00001ea0:    3c000400    ...<    DCD    1006633984
        0x00001ea4:    401cc403    ...@    DCD    1075627011
        0x00001ea8:    e4004007    .@..    DCD    3825221639
        0x00001eac:    04001c00    ....    DCD    67116032
        0x00001eb0:    fc1f0410    ....    DCD    4229891088
        0x00001eb4:    04110411    ....    DCD    68224017
        0x00001eb8:    880e0411    ....    DCD    2282619921
        0x00001ebc:    00007000    .p..    DCD    28672
        0x00001ec0:    180ce003    ....    DCD    403496963
        0x00001ec4:    04100410    ....    DCD    68158480
        0x00001ec8:    08100410    ....    DCD    135267344
        0x00001ecc:    0000101c    ....    DCD    4124
        0x00001ed0:    fc1f0410    ....    DCD    4229891088
        0x00001ed4:    04100410    ....    DCD    68158480
        0x00001ed8:    08080410    ....    DCD    134743056
        0x00001edc:    0000f007    ....    DCD    61447
        0x00001ee0:    fc1f0410    ....    DCD    4229891088
        0x00001ee4:    04110411    ....    DCD    68224017
        0x00001ee8:    0410c417    ....    DCD    68207639
        0x00001eec:    00001808    ....    DCD    6152
        0x00001ef0:    fc1f0410    ....    DCD    4229891088
        0x00001ef4:    00110411    ....    DCD    1115153
        0x00001ef8:    0010c017    ....    DCD    1097751
        0x00001efc:    00000008    ....    DCD    8
        0x00001f00:    180ce003    ....    DCD    403496963
        0x00001f04:    04100410    ....    DCD    68158480
        0x00001f08:    781c4410    .D.x    DCD    2015118352
        0x00001f0c:    00004000    .@..    DCD    16384
        0x00001f10:    fc1f0410    ....    DCD    4229891088
        0x00001f14:    80008410    ....    DCD    2147517456
        0x00001f18:    84108000    ....    DCD    2215673856
        0x00001f1c:    0410fc1f    ....    DCD    68221983
        0x00001f20:    04100000    ....    DCD    68157440
        0x00001f24:    fc1f0410    ....    DCD    4229891088
        0x00001f28:    04100410    ....    DCD    68158480
        0x00001f2c:    00000000    ....    DCD    0
        0x00001f30:    01000300    ....    DCD    16777984
        0x00001f34:    01100110    ....    DCD    17826064
        0x00001f38:    0010fe1f    ....    DCD    1113631
        0x00001f3c:    00000010    ....    DCD    16
        0x00001f40:    fc1f0410    ....    DCD    4229891088
        0x00001f44:    80030411    ....    DCD    2147681297
        0x00001f48:    1c186414    .d..    DCD    471360532
        0x00001f4c:    00000410    ....    DCD    1040
        0x00001f50:    fc1f0410    ....    DCD    4229891088
        0x00001f54:    04000410    ....    DCD    67109904
        0x00001f58:    04000400    ....    DCD    67109888
        0x00001f5c:    00000c00    ....    DCD    3072
        0x00001f60:    fc1f0410    ....    DCD    4229891088
        0x00001f64:    fc00001f    ....    DCD    4227858463
        0x00001f68:    fc1f001f    ....    DCD    4229890079
        0x00001f6c:    00000410    ....    DCD    1040
        0x00001f70:    fc1f0410    ....    DCD    4229891088
        0x00001f74:    0003040c    ....    DCD    197644
        0x00001f78:    1810e000    ....    DCD    403759104
        0x00001f7c:    0010fc1f    ....    DCD    1113119
        0x00001f80:    0808f007    ....    DCD    134803463
        0x00001f84:    04100410    ....    DCD    68158480
        0x00001f88:    08080410    ....    DCD    134743056
        0x00001f8c:    0000f007    ....    DCD    61447
        0x00001f90:    fc1f0410    ....    DCD    4229891088
        0x00001f94:    80108410    ....    DCD    2148566032
        0x00001f98:    80108010    ....    DCD    2148565008
        0x00001f9c:    0000000f    ....    DCD    15
        0x00001fa0:    1808f007    ....    DCD    403238919
        0x00001fa4:    24102410    .$.$    DCD    605037584
        0x00001fa8:    0a081c10    ....    DCD    168303632
        0x00001fac:    0000f207    ....    DCD    61959
        0x00001fb0:    fc1f0410    ....    DCD    4229891088
        0x00001fb4:    00110411    ....    DCD    1115153
        0x00001fb8:    3011c011    ...0    DCD    806469649
        0x00001fbc:    04000c0e    ....    DCD    67111950
        0x00001fc0:    1c0e0000    ....    DCD    470679552
        0x00001fc4:    84100411    ....    DCD    2215642129
        0x00001fc8:    44108410    ...D    DCD    1141933072
        0x00001fcc:    0000381c    .8..    DCD    14364
        0x00001fd0:    00100018    ....    DCD    1048600
        0x00001fd4:    fc1f0410    ....    DCD    4229891088
        0x00001fd8:    00100410    ....    DCD    1049616
        0x00001fdc:    00000018    ....    DCD    24
        0x00001fe0:    f81f0010    ....    DCD    4162781200
        0x00001fe4:    04000410    ....    DCD    67109904
        0x00001fe8:    04100400    ....    DCD    68158464
        0x00001fec:    0010f81f    ....    DCD    1112095
        0x00001ff0:    001e0010    ....    DCD    1966096
        0x00001ff4:    1c00e011    ....    DCD    469819409
        0x00001ff8:    80137000    .p..    DCD    2148757504
        0x00001ffc:    0010001c    ....    DCD    1048604
        0x00002000:    3c10c01f    ...<    DCD    1007730719
        0x00002004:    001fe000    ....    DCD    2088960
        0x00002008:    3c10e000    ...<    DCD    1007738880
        0x0000200c:    0000c01f    ....    DCD    49183
        0x00002010:    0c180410    ....    DCD    202900496
        0x00002014:    c0013416    .4..    DCD    3221304342
        0x00002018:    3416c001    ...4    DCD    873906177
        0x0000201c:    04100c18    ....    DCD    68160536
        0x00002020:    001c0010    ....    DCD    1835024
        0x00002024:    fc000413    ....    DCD    4227859475
        0x00002028:    001c0413    ....    DCD    1836051
        0x0000202c:    00000010    ....    DCD    16
        0x00002030:    1c100408    ....    DCD    470811656
        0x00002034:    84106410    .d..    DCD    2215666704
        0x00002038:    041c0413    ....    DCD    68944915
        0x0000203c:    00001810    ....    DCD    6160
        0x00002040:    00000000    ....    DCD    0
        0x00002044:    fe7f0000    ....    DCD    4269735936
        0x00002048:    02400240    @.@.    DCD    37749312
        0x0000204c:    00000240    @...    DCD    576
        0x00002050:    00300000    ..0.    DCD    3145728
        0x00002054:    8003000c    ....    DCD    2147680268
        0x00002058:    1c006000    .`..    DCD    469786624
        0x0000205c:    00000300    ....    DCD    768
        0x00002060:    02400000    ..@.    DCD    37748736
        0x00002064:    02400240    @.@.    DCD    37749312
        0x00002068:    0000fe7f    ....    DCD    65151
        0x0000206c:    00000000    ....    DCD    0
        0x00002070:    00000000    ....    DCD    0
        0x00002074:    00400020     .@.    DCD    4194336
        0x00002078:    00400040    @.@.    DCD    4194368
        0x0000207c:    00000020     ...    DCD    32
        0x00002080:    01000100    ....    DCD    16777472
        0x00002084:    01000100    ....    DCD    16777472
        0x00002088:    01000100    ....    DCD    16777472
        0x0000208c:    01000100    ....    DCD    16777472
        0x00002090:    00400000    ..@.    DCD    4194304
        0x00002094:    00200040    @. .    DCD    2097216
        0x00002098:    00000000    ....    DCD    0
        0x0000209c:    00000000    ....    DCD    0
        0x000020a0:    98000000    ....    DCD    2550136832
        0x000020a4:    44012401    .$.D    DCD    1140925441
        0x000020a8:    44014401    .D.D    DCD    1140933633
        0x000020ac:    0400fc00    ....    DCD    67173376
        0x000020b0:    fc1f0010    ....    DCD    4229890064
        0x000020b4:    04018800    ....    DCD    67209216
        0x000020b8:    88000401    ....    DCD    2281702401
        0x000020bc:    00007000    .p..    DCD    28672
        0x000020c0:    70000000    ...p    DCD    1879048192
        0x000020c4:    04018800    ....    DCD    67209216
        0x000020c8:    04010401    ....    DCD    67175425
        0x000020cc:    00008800    ....    DCD    34816
        0x000020d0:    70000000    ...p    DCD    1879048192
        0x000020d4:    04018800    ....    DCD    67209216
        0x000020d8:    08110401    ....    DCD    135332865
        0x000020dc:    0400fc1f    ....    DCD    67173407
        0x000020e0:    f8000000    ....    DCD    4160749568
        0x000020e4:    44014401    .D.D    DCD    1140933633
        0x000020e8:    44014401    .D.D    DCD    1140933633
        0x000020ec:    0000c800    ....    DCD    51200
        0x000020f0:    04010000    ....    DCD    67174400
        0x000020f4:    fc0f0401    ....    DCD    4228842497
        0x000020f8:    04110411    ....    DCD    68224017
        0x000020fc:    00180011    ....    DCD    1572881
        0x00002100:    d6000000    ....    DCD    3590324224
        0x00002104:    29012901    .).)    DCD    687941889
        0x00002108:    c9012901    .)..    DCD    3372296449
        0x0000210c:    00000601    ....    DCD    1537
        0x00002110:    fc1f0410    ....    DCD    4229891088
        0x00002114:    00018400    ....    DCD    99328
        0x00002118:    04010001    ....    DCD    67174401
        0x0000211c:    0400fc00    ....    DCD    67173376
        0x00002120:    04010000    ....    DCD    67174400
        0x00002124:    fc190419    ....    DCD    4229497881
        0x00002128:    04000400    ....    DCD    67109888
        0x0000212c:    00000000    ....    DCD    0
        0x00002130:    03000000    ....    DCD    50331648
        0x00002134:    01010100    ....    DCD    16843008
        0x00002138:    fe190119    ....    DCD    4263051545
        0x0000213c:    00000000    ....    DCD    0
        0x00002140:    fc1f0410    ....    DCD    4229891088
        0x00002144:    40002400    .$.@    DCD    1073751040
        0x00002148:    0c01b401    ....    DCD    201438209
        0x0000214c:    00000401    ....    DCD    1025
        0x00002150:    04100000    ....    DCD    68157440
        0x00002154:    fc1f0410    ....    DCD    4229891088
        0x00002158:    04000400    ....    DCD    67109888
        0x0000215c:    00000000    ....    DCD    0
        0x00002160:    fc010401    ....    DCD    4227924993
        0x00002164:    00010401    ....    DCD    66561
        0x00002168:    0401fc01    ....    DCD    67238913
        0x0000216c:    fc000001    ....    DCD    4227858433
        0x00002170:    fc010401    ....    DCD    4227924993
        0x00002174:    00018400    ....    DCD    99328
        0x00002178:    04010001    ....    DCD    67174401
        0x0000217c:    0400fc00    ....    DCD    67173376
        0x00002180:    f8000000    ....    DCD    4160749568
        0x00002184:    04010401    ....    DCD    67175425
        0x00002188:    04010401    ....    DCD    67175425
        0x0000218c:    0000f800    ....    DCD    63488
        0x00002190:    ff010101    ....    DCD    4278255873
        0x00002194:    04018500    ....    DCD    67208448
        0x00002198:    88000401    ....    DCD    2281702401
        0x0000219c:    00007000    .p..    DCD    28672
        0x000021a0:    70000000    ...p    DCD    1879048192
        0x000021a4:    04018800    ....    DCD    67209216
        0x000021a8:    05010401    ....    DCD    83952641
        0x000021ac:    0100ff01    ....    DCD    16842497
        0x000021b0:    04010401    ....    DCD    67175425
        0x000021b4:    8400fc01    ....    DCD    2214657025
        0x000021b8:    00010401    ....    DCD    66561
        0x000021bc:    00008001    ....    DCD    32769
        0x000021c0:    cc000000    ....    DCD    3422552064
        0x000021c4:    24012401    .$.$    DCD    604054529
        0x000021c8:    24012401    .$.$    DCD    604054529
        0x000021cc:    00009801    ....    DCD    38913
        0x000021d0:    00010000    ....    DCD    65536
        0x000021d4:    f8070001    ....    DCD    4161208321
        0x000021d8:    04010401    ....    DCD    67175425
        0x000021dc:    00000000    ....    DCD    0
        0x000021e0:    f8010001    ....    DCD    4160815105
        0x000021e4:    04000400    ....    DCD    67109888
        0x000021e8:    08010400    ....    DCD    134284288
        0x000021ec:    0400fc01    ....    DCD    67173377
        0x000021f0:    80010001    ....    DCD    2147549185
        0x000021f4:    0c007001    .p..    DCD    201355265
        0x000021f8:    60011000    ...`    DCD    1610682368
        0x000021fc:    00018001    ....    DCD    98305
        0x00002200:    0c01f001    ....    DCD    201453569
        0x00002204:    c0013000    .0..    DCD    3221303296
        0x00002208:    0c013000    .0..    DCD    201404416
        0x0000220c:    0001f001    ....    DCD    126977
        0x00002210:    04010000    ....    DCD    67174400
        0x00002214:    74008c01    ...t    DCD    1946192897
        0x00002218:    8c017001    .p..    DCD    2348904449
        0x0000221c:    00000401    ....    DCD    1025
        0x00002220:    81010101    ....    DCD    2164326657
        0x00002224:    0e007101    .q..    DCD    234909953
        0x00002228:    60011800    ...`    DCD    1610684416
        0x0000222c:    00018001    ....    DCD    98305
        0x00002230:    84010000    ....    DCD    2214658048
        0x00002234:    34010c01    ...4    DCD    872483841
        0x00002238:    84014401    .D..    DCD    2214675457
        0x0000223c:    00000c01    ....    DCD    3073
        0x00002240:    00000000    ....    DCD    0
        0x00002244:    00000000    ....    DCD    0
        0x00002248:    fc3e0001    ..>.    DCD    4231921665
        0x0000224c:    02400240    @.@.    DCD    37749312
        0x00002250:    00000000    ....    DCD    0
        0x00002254:    00000000    ....    DCD    0
        0x00002258:    0000ffff    ....    DCD    65535
        0x0000225c:    00000000    ....    DCD    0
        0x00002260:    02400000    ..@.    DCD    37748736
        0x00002264:    fc3e0240    @.>.    DCD    4231922240
        0x00002268:    00000001    ....    DCD    1
        0x0000226c:    00000000    ....    DCD    0
        0x00002270:    00600000    ..`.    DCD    6291456
        0x00002274:    00800080    ....    DCD    8388736
        0x00002278:    00400040    @.@.    DCD    4194368
        0x0000227c:    00200020     . .    DCD    2097184
    asc2_2412
        0x00002280:    00000000    ....    DCD    0
        0x00002284:    00000000    ....    DCD    0
        0x00002288:    00000000    ....    DCD    0
        0x0000228c:    00000000    ....    DCD    0
        0x00002290:    00000000    ....    DCD    0
        0x00002294:    00000000    ....    DCD    0
        0x00002298:    00000000    ....    DCD    0
        0x0000229c:    00000000    ....    DCD    0
        0x000022a0:    00000000    ....    DCD    0
        0x000022a4:    00000000    ....    DCD    0
        0x000022a8:    00000000    ....    DCD    0
        0x000022ac:    00000000    ....    DCD    0
        0x000022b0:    0f000000    ....    DCD    251658240
        0x000022b4:    fe0f3880    .8..    DCD    4262410368
        0x000022b8:    38800f38    8..8    DCD    947916600
        0x000022bc:    00000000    ....    DCD    0
        0x000022c0:    00000000    ....    DCD    0
        0x000022c4:    00000000    ....    DCD    0
        0x000022c8:    00000000    ....    DCD    0
        0x000022cc:    00010000    ....    DCD    65536
        0x000022d0:    00000600    ....    DCD    1536
        0x000022d4:    3800000c    ...8    DCD    939524108
        0x000022d8:    00310000    ..1.    DCD    3211264
        0x000022dc:    00000600    ....    DCD    1536
        0x000022e0:    3800000c    ...8    DCD    939524108
        0x000022e4:    00300000    ..0.    DCD    3145728
        0x000022e8:    00000000    ....    DCD    0
        0x000022ec:    00000000    ....    DCD    0
        0x000022f0:    67008061    a..g    DCD    1728086113
        0x000022f4:    80f907f8    ....    DCD    2163804152
        0x000022f8:    00806100    .a..    DCD    8413440
        0x000022fc:    61008061    a..a    DCD    1627422817
        0x00002300:    80610080    ..a.    DCD    2153840768
        0x00002304:    07f86700    .g..    DCD    133719808
        0x00002308:    610080f9    ...a    DCD    1627422969
        0x0000230c:    00000080    ....    DCD    128
        0x00002310:    00000000    ....    DCD    0
        0x00002314:    c0010000    ....    DCD    3221291008
        0x00002318:    f0e003e0    ....    DCD    4041212896
        0x0000231c:    04083006    .0..    DCD    67645446
        0x00002320:    ff1f0818    ....    DCD    4280223768
        0x00002324:    080e04fe    ....    DCD    135136510
        0x00002328:    03f08707    ....    DCD    66094855
        0x0000232c:    0000e081    ....    DCD    57473
        0x00002330:    00000000    ....    DCD    0
        0x00002334:    0600f001    ....    DCD    100724737
        0x00002338:    0404000c    ....    DCD    67371020
        0x0000233c:    700c0608    ...p    DCD    1879836168
        0x00002340:    00c0f901    ....    DCD    12646657
        0x00002344:    3b00000e    ...;    DCD    989855758
        0x00002348:    18ec00e0    ....    DCD    418119904
        0x0000234c:    04080807    ....    DCD    67635207
        0x00002350:    0300180c    ....    DCD    50337804
        0x00002354:    000000e0    ....    DCD    224
        0x00002358:    00e00100    ....    DCD    14680320
        0x0000235c:    f803f007    ....    DCD    4161007623
        0x00002360:    081c0418    ....    DCD    136053784
        0x00002364:    07081704    ....    DCD    117970692
        0x00002368:    c003d0e1    ....    DCD    3221475553
        0x0000236c:    b02300e0    ..#.    DCD    2955084000
        0x00002370:    00083c00    .<..    DCD    539648
        0x00002374:    00000820     ...    DCD    2080
        0x00002378:    00000010    ....    DCD    16
        0x0000237c:    01000000    ....    DCD    16777216
        0x00002380:    00310000    ..1.    DCD    3211264
        0x00002384:    00003200    .2..    DCD    12800
        0x00002388:    0000001c    ....    DCD    28
        0x0000238c:    00000000    ....    DCD    0
        0x00002390:    00000000    ....    DCD    0
        0x00002394:    00000000    ....    DCD    0
        0x00002398:    00000000    ....    DCD    0
        0x0000239c:    00000000    ....    DCD    0
        0x000023a0:    00000000    ....    DCD    0
        0x000023a4:    00000000    ....    DCD    0
        0x000023a8:    00000000    ....    DCD    0
        0x000023ac:    00000000    ....    DCD    0
        0x000023b0:    ff01007f    ....    DCD    4278255743
        0x000023b4:    f08007c0    ....    DCD    4034922432
        0x000023b8:    1018000c    ....    DCD    270008332
        0x000023bc:    00200400    .. .    DCD    2098176
        0x000023c0:    00000002    ....    DCD    2
        0x000023c4:    20000000    ...     DCD    536870912
        0x000023c8:    00100200    ....    DCD    1049088
        0x000023cc:    18000c04    ....    DCD    402656260
        0x000023d0:    01f08007    ....    DCD    32538631
        0x000023d4:    7f00c0ff    ....    DCD    2130755839
        0x000023d8:    00000000    ....    DCD    0
        0x000023dc:    00000000    ....    DCD    0
        0x000023e0:    00000000    ....    DCD    0
        0x000023e4:    00000000    ....    DCD    0
        0x000023e8:    00000000    ....    DCD    0
        0x000023ec:    66000042    B..f    DCD    1711276098
        0x000023f0:    00660000    ..f.    DCD    6684672
        0x000023f4:    00003c00    .<..    DCD    15360
        0x000023f8:    ff030018    ....    DCD    4278386712
        0x000023fc:    001800c0    ....    DCD    1573056
        0x00002400:    00003c00    .<..    DCD    15360
        0x00002404:    66000066    f..f    DCD    1711276134
        0x00002408:    00420000    ..B.    DCD    4325376
        0x0000240c:    00000000    ....    DCD    0
        0x00002410:    08000008    ....    DCD    134217736
        0x00002414:    00080000    ....    DCD    524288
        0x00002418:    00000800    ....    DCD    2048
        0x0000241c:    ff010008    ....    DCD    4278255624
        0x00002420:    000800c0    ....    DCD    524480
        0x00002424:    00000800    ....    DCD    2048
        0x00002428:    08000008    ....    DCD    134217736
        0x0000242c:    00080000    ....    DCD    524288
        0x00002430:    00000000    ....    DCD    0
        0x00002434:    00000100    ....    DCD    256
        0x00002438:    32000031    1..2    DCD    838860849
        0x0000243c:    001c0000    ....    DCD    1835008
        0x00002440:    00000000    ....    DCD    0
        0x00002444:    00000000    ....    DCD    0
        0x00002448:    00000000    ....    DCD    0
        0x0000244c:    00000000    ....    DCD    0
        0x00002450:    00000000    ....    DCD    0
        0x00002454:    00000000    ....    DCD    0
        0x00002458:    08000008    ....    DCD    134217736
        0x0000245c:    00080000    ....    DCD    524288
        0x00002460:    00000800    ....    DCD    2048
        0x00002464:    08000008    ....    DCD    134217736
        0x00002468:    00080000    ....    DCD    524288
        0x0000246c:    00000800    ....    DCD    2048
        0x00002470:    08000008    ....    DCD    134217736
        0x00002474:    00000000    ....    DCD    0
        0x00002478:    00000000    ....    DCD    0
        0x0000247c:    00000000    ....    DCD    0
        0x00002480:    38000038    8..8    DCD    939524152
        0x00002484:    00380000    ..8.    DCD    3670016
        0x00002488:    00000000    ....    DCD    0
        0x0000248c:    00000000    ....    DCD    0
        0x00002490:    00000000    ....    DCD    0
        0x00002494:    00000000    ....    DCD    0
        0x00002498:    00000000    ....    DCD    0
        0x0000249c:    00000000    ....    DCD    0
        0x000024a0:    00000600    ....    DCD    1536
        0x000024a4:    7000001c    ...p    DCD    1879048220
        0x000024a8:    00800100    ....    DCD    8388864
        0x000024ac:    3800000e    ...8    DCD    939524110
        0x000024b0:    00c00000    ....    DCD    12582912
        0x000024b4:    1c000007    ....    DCD    469762055
        0x000024b8:    00300000    ..0.    DCD    3145728
        0x000024bc:    00000000    ....    DCD    0
        0x000024c0:    00000000    ....    DCD    0
        0x000024c4:    ff01807f    ....    DCD    4278288511
        0x000024c8:    708003e0    ...p    DCD    1887437792
        0x000024cc:    04180006    ....    DCD    68681734
        0x000024d0:    00040800    ....    DCD    264192
        0x000024d4:    18000608    ....    DCD    402654728
        0x000024d8:    01708003    ..p.    DCD    24150019
        0x000024dc:    7f00e0ff    ....    DCD    2130764031
        0x000024e0:    00000080    ....    DCD    128
        0x000024e4:    00000000    ....    DCD    0
        0x000024e8:    00010000    ....    DCD    65536
        0x000024ec:    08000108    ....    DCD    134217992
        0x000024f0:    03080001    ....    DCD    50855937
        0x000024f4:    ff07f8ff    ....    DCD    4278712575
        0x000024f8:    080000f8    ....    DCD    134217976
        0x000024fc:    00080000    ....    DCD    524288
        0x00002500:    00000800    ....    DCD    2048
        0x00002504:    00000000    ....    DCD    0
        0x00002508:    01000000    ....    DCD    16777216
        0x0000250c:    c00238c0    .8..    DCD    3221371072
        0x00002510:    98000458    X...    DCD    2550137944
        0x00002514:    04180104    ....    DCD    68681988
        0x00002518:    04041802    ....    DCD    67377154
        0x0000251c:    181c0618    ....    DCD    404489752
        0x00002520:    0118f803    ....    DCD    18413571
        0x00002524:    0000f8e0    ....    DCD    63712
        0x00002528:    00000000    ....    DCD    0
        0x0000252c:    01000000    ....    DCD    16777216
        0x00002530:    c003e0c0    ....    DCD    3221479616
        0x00002534:    080004f0    ....    DCD    134218992
        0x00002538:    04080804    ....    DCD    67635204
        0x0000253c:    18060808    ....    DCD    403048456
        0x00002540:    18f40308    ....    DCD    418644744
        0x00002544:    00f0e701    ....    DCD    15787777
        0x00002548:    0000e001    ....    DCD    57345
        0x0000254c:    00000000    ....    DCD    0
        0x00002550:    00000000    ....    DCD    0
        0x00002554:    0d000003    ....    DCD    218103811
        0x00002558:    00110000    ....    DCD    1114112
        0x0000255c:    00006100    .a..    DCD    24832
        0x00002560:    01030881    ....    DCD    16976001
        0x00002564:    f8ff0708    ....    DCD    4177463048
        0x00002568:    00f8ff0f    ....    DCD    16318223
        0x0000256c:    01000801    ....    DCD    16779265
        0x00002570:    00000008    ....    DCD    8
        0x00002574:    00000000    ....    DCD    0
        0x00002578:    fc07e000    ....    DCD    4228374528
        0x0000257c:    080806d0    ....    DCD    134743760
        0x00002580:    06081006    ....    DCD    101191686
        0x00002584:    10060810    ....    DCD    268830736
        0x00002588:    38180608    ...8    DCD    941098504
        0x0000258c:    06f00f06    ....    DCD    116395782
        0x00002590:    0000c007    ....    DCD    49159
        0x00002594:    00000000    ....    DCD    0
        0x00002598:    00000000    ....    DCD    0
        0x0000259c:    ff01803f    ?...    DCD    4278288447
        0x000025a0:    308403e0    ...0    DCD    813958112
        0x000025a4:    04180802    ....    DCD    68683778
        0x000025a8:    10040810    ....    DCD    268699664
        0x000025ac:    08100408    ....    DCD    135267336
        0x000025b0:    03101807    ....    DCD    51386375
        0x000025b4:    0700f00f    ....    DCD    117501967
        0x000025b8:    000000c0    ....    DCD    192
        0x000025bc:    00000000    ....    DCD    0
        0x000025c0:    c0030000    ....    DCD    3221422080
        0x000025c4:    00000700    ....    DCD    1792
        0x000025c8:    06000006    ....    DCD    100663302
        0x000025cc:    0706f800    ....    DCD    117897216
        0x000025d0:    001806f8    ....    DCD    1574648
        0x000025d4:    0700e006    ....    DCD    117497862
        0x000025d8:    00060000    ....    DCD    393216
        0x000025dc:    00000000    ....    DCD    0
        0x000025e0:    01000000    ....    DCD    16777216
        0x000025e4:    f703e0e1    ....    DCD    4144226529
        0x000025e8:    103406f0    ..4.    DCD    271845104
        0x000025ec:    04081804    ....    DCD    67639300
        0x000025f0:    0c040818    ....    DCD    201590808
        0x000025f4:    080c0408    ....    DCD    135005192
        0x000025f8:    03181606    ....    DCD    51910150
        0x000025fc:    c101f0f3    ....    DCD    3238129907
        0x00002600:    000000e0    ....    DCD    224
        0x00002604:    00000000    ....    DCD    0
        0x00002608:    fc0300f8    ....    DCD    4228055288
        0x0000260c:    38060330    0..8    DCD    939918128
        0x00002610:    04080204    ....    DCD    67633668
        0x00002614:    02040802    ....    DCD    33818626
        0x00002618:    10040408    ....    DCD    268698632
        0x0000261c:    01f00803    ....    DCD    32507907
        0x00002620:    7f00c0ff    ....    DCD    2130755839
        0x00002624:    00000000    ....    DCD    0
        0x00002628:    00000000    ....    DCD    0
        0x0000262c:    00000000    ....    DCD    0
        0x00002630:    00000000    ....    DCD    0
        0x00002634:    00000000    ....    DCD    0
        0x00002638:    70003870    p8.p    DCD    1879062640
        0x0000263c:    38700038    8.p8    DCD    946864184
        0x00002640:    00000000    ....    DCD    0
        0x00002644:    00000000    ....    DCD    0
        0x00002648:    00000000    ....    DCD    0
        0x0000264c:    00000000    ....    DCD    0
        0x00002650:    00000000    ....    DCD    0
        0x00002654:    00000000    ....    DCD    0
        0x00002658:    00000000    ....    DCD    0
        0x0000265c:    30001a30    0..0    DCD    805313072
        0x00002660:    0000001c    ....    DCD    28
        0x00002664:    00000000    ....    DCD    0
        0x00002668:    00000000    ....    DCD    0
        0x0000266c:    00000000    ....    DCD    0
        0x00002670:    00000000    ....    DCD    0
        0x00002674:    08000000    ....    DCD    134217728
        0x00002678:    00140000    ....    DCD    1310720
        0x0000267c:    00002200    ."..    DCD    8704
        0x00002680:    80000041    A...    DCD    2147483713
        0x00002684:    40000180    ...@    DCD    1073742208
        0x00002688:    04200002    .. .    DCD    69206018
        0x0000268c:    00081000    ....    DCD    528384
        0x00002690:    00000008    ....    DCD    8
        0x00002694:    00000000    ....    DCD    0
        0x00002698:    21000021    !..!    DCD    553648161
        0x0000269c:    00210000    ..!.    DCD    2162688
        0x000026a0:    00002100    .!..    DCD    8448
        0x000026a4:    21000021    !..!    DCD    553648161
        0x000026a8:    00210000    ..!.    DCD    2162688
        0x000026ac:    00002100    .!..    DCD    8448
        0x000026b0:    21000021    !..!    DCD    553648161
        0x000026b4:    00000000    ....    DCD    0
        0x000026b8:    00000000    ....    DCD    0
        0x000026bc:    00080000    ....    DCD    524288
        0x000026c0:    10000408    ....    DCD    268436488
        0x000026c4:    01200002    .. .    DCD    18874370
        0x000026c8:    80004000    .@..    DCD    2147500032
        0x000026cc:    00410080    ..A.    DCD    4259968
        0x000026d0:    00002200    ."..    DCD    8704
        0x000026d4:    08000014    ....    DCD    134217748
        0x000026d8:    00000000    ....    DCD    0
        0x000026dc:    03000000    ....    DCD    50331648
        0x000026e0:    c00400c0    ....    DCD    3221487808
        0x000026e4:    00000400    ....    DCD    1024
        0x000026e8:    08380008    ..8.    DCD    137887752
        0x000026ec:    0808380f    .8..    DCD    134756367
        0x000026f0:    00100838    8...    DCD    1050680
        0x000026f4:    0700300c    .0..    DCD    117452812
        0x000026f8:    c00300e0    ....    DCD    3221422304
        0x000026fc:    00000000    ....    DCD    0
        0x00002700:    00000000    ....    DCD    0
        0x00002704:    ff00803f    ?...    DCD    4278222911
        0x00002708:    708003e0    ...p    DCD    1887437792
        0x0000270c:    06100f02    ....    DCD    101715714
        0x00002710:    c0048870    p...    DCD    3221522544
        0x00002714:    08830488    ....    DCD    142804104
        0x00002718:    02887f04    ....    DCD    42499844
        0x0000271c:    010390c0    ....    DCD    17010880
        0x00002720:    40fe0020     ..@    DCD    1090388000
        0x00002724:    00080000    ....    DCD    524288
        0x00002728:    01001800    ....    DCD    16783360
        0x0000272c:    083e00f8    ..>.    DCD    138281208
        0x00002730:    0700c201    ....    DCD    117490177
        0x00002734:    e2070002    ....    DCD    3792109570
        0x00002738:    00fe0000    ....    DCD    16646144
        0x0000273c:    00c81f00    ....    DCD    13115136
        0x00002740:    0000f801    ....    DCD    63489
        0x00002744:    08000038    8...    DCD    134217784
        0x00002748:    07080004    ....    DCD    117964804
        0x0000274c:    ff07f8ff    ....    DCD    4278712575
        0x00002750:    080804f8    ....    DCD    134743288
        0x00002754:    04080804    ....    DCD    67635204
        0x00002758:    08040808    ....    DCD    134481928
        0x0000275c:    08180608    ....    DCD    135792136
        0x00002760:    0118f403    ....    DCD    18412547
        0x00002764:    0100f0e7    ....    DCD    16838887
        0x00002768:    000000e0    ....    DCD    224
        0x0000276c:    00000000    ....    DCD    0
        0x00002770:    ff01803f    ?...    DCD    4278288447
        0x00002774:    708003e0    ...p    DCD    1887437792
        0x00002778:    04180002    ....    DCD    68681730
        0x0000277c:    00040800    ....    DCD    264192
        0x00002780:    08000408    ....    DCD    134218760
        0x00002784:    06100004    ....    DCD    101711876
        0x00002788:    80072000    . ..    DCD    2147950592
        0x0000278c:    000000c0    ....    DCD    192
        0x00002790:    07080004    ....    DCD    117964804
        0x00002794:    ff07f8ff    ....    DCD    4278712575
        0x00002798:    080004f8    ....    DCD    134219000
        0x0000279c:    04080004    ....    DCD    67633156
        0x000027a0:    00040800    ....    DCD    264192
        0x000027a4:    10000218    ....    DCD    268435992
        0x000027a8:    01708003    ..p.    DCD    24150019
        0x000027ac:    7f00e0ff    ....    DCD    2130764031
        0x000027b0:    00000080    ....    DCD    128
        0x000027b4:    07080004    ....    DCD    117964804
        0x000027b8:    ff07f8ff    ....    DCD    4278712575
        0x000027bc:    080804f8    ....    DCD    134743288
        0x000027c0:    04080804    ....    DCD    67635204
        0x000027c4:    08040808    ....    DCD    134481928
        0x000027c8:    083e0408    ..>.    DCD    138281992
        0x000027cc:    06080004    ....    DCD    101187588
        0x000027d0:    00011800    ....    DCD    71680
        0x000027d4:    00000060    `...    DCD    96
        0x000027d8:    07080004    ....    DCD    117964804
        0x000027dc:    ff07f8ff    ....    DCD    4278712575
        0x000027e0:    080804f8    ....    DCD    134743288
        0x000027e4:    04000804    ....    DCD    67110916
        0x000027e8:    08040008    ....    DCD    134479880
        0x000027ec:    003e0400    ..>.    DCD    4064256
        0x000027f0:    06000006    ....    DCD    100663302
        0x000027f4:    80010000    ....    DCD    2147549184
        0x000027f8:    00000000    ....    DCD    0
        0x000027fc:    00000000    ....    DCD    0
        0x00002800:    ff01803f    ?...    DCD    4278288447
        0x00002804:    708003e0    ...p    DCD    1887437792
        0x00002808:    04180006    ....    DCD    68681734
        0x0000280c:    02040800    ....    DCD    33818624
        0x00002810:    08020408    ....    DCD    134349832
        0x00002814:    07f00302    ....    DCD    133169922
        0x00002818:    0200f083    ....    DCD    33616003
        0x0000281c:    00020000    ....    DCD    131072
        0x00002820:    07080004    ....    DCD    117964804
        0x00002824:    ff07f8ff    ....    DCD    4278712575
        0x00002828:    080804f8    ....    DCD    134743288
        0x0000282c:    00000800    ....    DCD    2048
        0x00002830:    08000008    ....    DCD    134217736
        0x00002834:    00080000    ....    DCD    524288
        0x00002838:    07080804    ....    DCD    117966852
        0x0000283c:    ff07f8ff    ....    DCD    4278712575
        0x00002840:    080004f8    ....    DCD    134219000
        0x00002844:    00000000    ....    DCD    0
        0x00002848:    00040000    ....    DCD    262144
        0x0000284c:    08000408    ....    DCD    134218760
        0x00002850:    07080004    ....    DCD    117964804
        0x00002854:    ff07f8ff    ....    DCD    4278712575
        0x00002858:    080004f8    ....    DCD    134219000
        0x0000285c:    04080004    ....    DCD    67633156
        0x00002860:    00000800    ....    DCD    2048
        0x00002864:    00000000    ....    DCD    0
        0x00002868:    00000000    ....    DCD    0
        0x0000286c:    00000600    ....    DCD    1536
        0x00002870:    01000007    ....    DCD    16777223
        0x00002874:    04010004    ....    DCD    67174404
        0x00002878:    00040100    ....    DCD    262400
        0x0000287c:    feff0703    ....    DCD    4278126339
        0x00002880:    04fcff07    ....    DCD    83689223
        0x00002884:    00040000    ....    DCD    262144
        0x00002888:    00000400    ....    DCD    1024
        0x0000288c:    07080004    ....    DCD    117964804
        0x00002890:    ff07f8ff    ....    DCD    4278712575
        0x00002894:    080c04f8    ....    DCD    135005432
        0x00002898:    00001800    ....    DCD    6144
        0x0000289c:    c704003e    >...    DCD    3338928190
        0x000028a0:    c8030580    ....    DCD    3355641216
        0x000028a4:    04f80006    ....    DCD    83361798
        0x000028a8:    00043800    .8..    DCD    276480
        0x000028ac:    08000018    ....    DCD    134217752
        0x000028b0:    07080004    ....    DCD    117964804
        0x000028b4:    ff07f8ff    ....    DCD    4278712575
        0x000028b8:    080004f8    ....    DCD    134219000
        0x000028bc:    00080000    ....    DCD    524288
        0x000028c0:    00000800    ....    DCD    2048
        0x000028c4:    08000008    ....    DCD    134217736
        0x000028c8:    00080000    ....    DCD    524288
        0x000028cc:    00001800    ....    DCD    6144
        0x000028d0:    00000060    `...    DCD    96
        0x000028d4:    07080004    ....    DCD    117964804
        0x000028d8:    8007f8ff    ....    DCD    2148006143
        0x000028dc:    00fc0708    ....    DCD    16516872
        0x000028e0:    00c07f00    ....    DCD    12615424
        0x000028e4:    0700f803    ....    DCD    117504003
        0x000028e8:    007800c0    ..x.    DCD    7864512
        0x000028ec:    07088007    ....    DCD    117997575
        0x000028f0:    ff07f8ff    ....    DCD    4278712575
        0x000028f4:    080004f8    ....    DCD    134219000
        0x000028f8:    07080004    ....    DCD    117964804
        0x000028fc:    0007f8ff    ....    DCD    522495
        0x00002900:    00c00308    ....    DCD    12583688
        0x00002904:    0000e000    ....    DCD    57344
        0x00002908:    1e000038    8...    DCD    503316536
        0x0000290c:    00070000    ....    DCD    458752
        0x00002910:    04c00100    ....    DCD    79692032
        0x00002914:    ff07f000    ....    DCD    4278710272
        0x00002918:    000004f8    ....    DCD    1272
        0x0000291c:    00000000    ....    DCD    0
        0x00002920:    ff01807f    ....    DCD    4278288511
        0x00002924:    708003e0    ...p    DCD    1887437792
        0x00002928:    04180006    ....    DCD    68681734
        0x0000292c:    00040800    ....    DCD    264192
        0x00002930:    18000608    ....    DCD    402654728
        0x00002934:    01300003    ..0.    DCD    19922947
        0x00002938:    7f00e0ff    ....    DCD    2130764031
        0x0000293c:    00000080    ....    DCD    128
        0x00002940:    07080004    ....    DCD    117964804
        0x00002944:    ff07f8ff    ....    DCD    4278712575
        0x00002948:    080404f8    ....    DCD    134481144
        0x0000294c:    04000404    ....    DCD    67109892
        0x00002950:    04040004    ....    DCD    67371012
        0x00002954:    00040400    ....    DCD    263168
        0x00002958:    03000c06    ....    DCD    50334726
        0x0000295c:    f00100f8    ....    DCD    4026597624
        0x00002960:    00000000    ....    DCD    0
        0x00002964:    00000000    ....    DCD    0
        0x00002968:    ff01807f    ....    DCD    4278288511
        0x0000296c:    708003e0    ...p    DCD    1887437792
        0x00002970:    04880006    ....    DCD    76021766
        0x00002974:    00048800    ....    DCD    296960
        0x00002978:    3c0006c8    ...<    DCD    1006634696
        0x0000297c:    013e0003    ..>.    DCD    20840451
        0x00002980:    7f00e6ff    ....    DCD    2130765567
        0x00002984:    00000084    ....    DCD    132
        0x00002988:    07080004    ....    DCD    117964804
        0x0000298c:    ff07f8ff    ....    DCD    4278712575
        0x00002990:    080804f8    ....    DCD    134743288
        0x00002994:    04000804    ....    DCD    67110916
        0x00002998:    0f04000c    ....    DCD    251920396
        0x0000299c:    c00b0400    ....    DCD    3221947392
        0x000029a0:    03f01006    ....    DCD    66064390
        0x000029a4:    e00138f0    .8..    DCD    3758176496
        0x000029a8:    08000008    ....    DCD    134217736
        0x000029ac:    01000000    ....    DCD    16777216
        0x000029b0:    f003f8e0    ....    DCD    4026792160
        0x000029b4:    10300630    0.0.    DCD    271582768
        0x000029b8:    04081804    ....    DCD    67639300
        0x000029bc:    0c040818    ....    DCD    201590808
        0x000029c0:    080c0408    ....    DCD    135005192
        0x000029c4:    02180602    ....    DCD    35128834
        0x000029c8:    8107f007    ....    DCD    2164781063
        0x000029cc:    000000e0    ....    DCD    224
        0x000029d0:    06008001    ....    DCD    100696065
        0x000029d4:    00040000    ....    DCD    262144
        0x000029d8:    00000400    ....    DCD    1024
        0x000029dc:    07080004    ....    DCD    117964804
        0x000029e0:    ff07f8ff    ....    DCD    4278712575
        0x000029e4:    080004f8    ....    DCD    134219000
        0x000029e8:    04000004    ....    DCD    67108868
        0x000029ec:    00060000    ....    DCD    393216
        0x000029f0:    00800100    ....    DCD    8388864
        0x000029f4:    07000004    ....    DCD    117440516
        0x000029f8:    ff07e0ff    ....    DCD    4278706431
        0x000029fc:    180004f0    ....    DCD    402654448
        0x00002a00:    00080000    ....    DCD    524288
        0x00002a04:    00000800    ....    DCD    2048
        0x00002a08:    08000008    ....    DCD    134217736
        0x00002a0c:    04080000    ....    DCD    67633152
        0x00002a10:    ff071000    ....    DCD    4278652928
        0x00002a14:    000004e0    ....    DCD    1248
        0x00002a18:    06000004    ....    DCD    100663300
        0x00002a1c:    e0070000    ....    DCD    3758555136
        0x00002a20:    00fe0700    ....    DCD    16647936
        0x00002a24:    00e01f04    ....    DCD    14688004
        0x00002a28:    0000f801    ....    DCD    63489
        0x00002a2c:    e0010038    8...    DCD    3758161976
        0x00002a30:    07003e04    .>..    DCD    117456388
        0x00002a34:    000600c0    ....    DCD    393408
        0x00002a38:    00000400    ....    DCD    1024
        0x00002a3c:    07000004    ....    DCD    117440516
        0x00002a40:    ff0700e0    ....    DCD    4278649056
        0x00002a44:    f81f04c0    ....    DCD    4162782400
        0x00002a48:    07c00700    ....    DCD    130025216
        0x00002a4c:    ff0700f8    ....    DCD    4278649080
        0x00002a50:    f83f0480    ..?.    DCD    4164879488
        0x00002a54:    04c00700    ....    DCD    79693568
        0x00002a58:    000700f8    ....    DCD    459000
        0x00002a5c:    00000400    ....    DCD    1024
        0x00002a60:    04000000    ....    DCD    67108864
        0x00002a64:    00060800    ....    DCD    395264
        0x00002a68:    78c00718    ...x    DCD    2025850648
        0x00002a6c:    00c8f105    ....    DCD    13168901
        0x00002a70:    1f00003e    >...    DCD    520093758
        0x00002a74:    e8630480    ..c.    DCD    3898803328
        0x00002a78:    06f88007    ....    DCD    116948999
        0x00002a7c:    00041800    ....    DCD    268288
        0x00002a80:    00000008    ....    DCD    8
        0x00002a84:    06000004    ....    DCD    100663300
        0x00002a88:    80070000    ....    DCD    2147942400
        0x00002a8c:    08e00700    ....    DCD    148899584
        0x00002a90:    00087c04    .|..    DCD    556036
        0x00002a94:    0700f81f    ....    DCD    117504031
        0x00002a98:    081800f8    ....    DCD    135790840
        0x00002a9c:    0708e004    ....    DCD    118022148
        0x00002aa0:    00060000    ....    DCD    393216
        0x00002aa4:    00000400    ....    DCD    1024
        0x00002aa8:    01000000    ....    DCD    16777216
        0x00002aac:    00060800    ....    DCD    395264
        0x00002ab0:    f8000438    8...    DCD    4160750648
        0x00002ab4:    04e80304    ....    DCD    82313988
        0x00002ab8:    7c04080f    ...|    DCD    2080638991
        0x00002abc:    08f00508    ....    DCD    149947656
        0x00002ac0:    0708c007    ....    DCD    118013959
        0x00002ac4:    00041800    ....    DCD    268288
        0x00002ac8:    00000060    `...    DCD    96
        0x00002acc:    00000000    ....    DCD    0
        0x00002ad0:    00000000    ....    DCD    0
        0x00002ad4:    00000000    ....    DCD    0
        0x00002ad8:    3f000000    ...?    DCD    1056964608
        0x00002adc:    0020feff    .. .    DCD    2162431
        0x00002ae0:    02002002    . ..    DCD    33562626
        0x00002ae4:    20020020     ..     DCD    537002016
        0x00002ae8:    00200200    .. .    DCD    2097664
        0x00002aec:    00000002    ....    DCD    2
        0x00002af0:    00000000    ....    DCD    0
        0x00002af4:    00080000    ....    DCD    524288
        0x00002af8:    00000700    ....    DCD    1792
        0x00002afc:    0000c000    ....    DCD    49152
        0x00002b00:    06000038    8...    DCD    100663352
        0x00002b04:    c0010000    ....    DCD    3221291008
        0x00002b08:    00300000    ..0.    DCD    3145728
        0x00002b0c:    00000e00    ....    DCD    3584
        0x00002b10:    00000001    ....    DCD    1
        0x00002b14:    00000000    ....    DCD    0
        0x00002b18:    00200000    .. .    DCD    2097152
        0x00002b1c:    02002002    . ..    DCD    33562626
        0x00002b20:    20020020     ..     DCD    537002016
        0x00002b24:    00200200    .. .    DCD    2097664
        0x00002b28:    feff3f02    .?..    DCD    4278140674
        0x00002b2c:    00000000    ....    DCD    0
        0x00002b30:    00000000    ....    DCD    0
        0x00002b34:    00000000    ....    DCD    0
        0x00002b38:    00000000    ....    DCD    0
        0x00002b3c:    00000000    ....    DCD    0
        0x00002b40:    00000800    ....    DCD    2048
        0x00002b44:    30000010    ...0    DCD    805306384
        0x00002b48:    00200000    .. .    DCD    2097152
        0x00002b4c:    00003000    .0..    DCD    12288
        0x00002b50:    08000010    ....    DCD    134217744
        0x00002b54:    00000000    ....    DCD    0
        0x00002b58:    00000000    ....    DCD    0
        0x00002b5c:    00010000    ....    DCD    65536
        0x00002b60:    00000100    ....    DCD    256
        0x00002b64:    01000001    ....    DCD    16777217
        0x00002b68:    00010000    ....    DCD    65536
        0x00002b6c:    00000100    ....    DCD    256
        0x00002b70:    01000001    ....    DCD    16777217
        0x00002b74:    00010000    ....    DCD    65536
        0x00002b78:    00000100    ....    DCD    256
        0x00002b7c:    01000001    ....    DCD    16777217
        0x00002b80:    00000000    ....    DCD    0
        0x00002b84:    00000000    ....    DCD    0
        0x00002b88:    00002000    . ..    DCD    8192
        0x00002b8c:    10000020     ...    DCD    268435488
        0x00002b90:    00100000    ....    DCD    1048576
        0x00002b94:    00000000    ....    DCD    0
        0x00002b98:    00000000    ....    DCD    0
        0x00002b9c:    00000000    ....    DCD    0
        0x00002ba0:    00000000    ....    DCD    0
        0x00002ba4:    00000000    ....    DCD    0
        0x00002ba8:    1900f000    ....    DCD    419491840
        0x00002bac:    181b00f8    ....    DCD    404422904
        0x00002bb0:    00082200    ."..    DCD    532992
        0x00002bb4:    24000826    &..$    DCD    603981862
        0x00002bb8:    10240008    ..$.    DCD    270794760
        0x00002bbc:    00f83f00    .?..    DCD    16269056
        0x00002bc0:    0000f81f    ....    DCD    63519
        0x00002bc4:    18000008    ....    DCD    402653192
        0x00002bc8:    04000000    ....    DCD    67108864
        0x00002bcc:    ff070000    ....    DCD    4278648832
        0x00002bd0:    f0ff0ff8    ....    DCD    4043247608
        0x00002bd4:    00181800    ....    DCD    1579008
        0x00002bd8:    20000810    ...     DCD    536872976
        0x00002bdc:    08200008    .. .    DCD    136314888
        0x00002be0:    00183000    .0..    DCD    1585152
        0x00002be4:    0f00f01f    ....    DCD    251719711
        0x00002be8:    000000c0    ....    DCD    192
        0x00002bec:    00000000    ....    DCD    0
        0x00002bf0:    1f00c007    ....    DCD    520142855
        0x00002bf4:    301800f0    ...0    DCD    806879472
        0x00002bf8:    00082000    . ..    DCD    532480
        0x00002bfc:    20000820     ..     DCD    536872992
        0x00002c00:    083c0008    ..<.    DCD    138149896
        0x00002c04:    00101c00    ....    DCD    1055744
        0x00002c08:    00006000    .`..    DCD    24576
        0x00002c0c:    00000000    ....    DCD    0
        0x00002c10:    00000000    ....    DCD    0
        0x00002c14:    1f00c007    ....    DCD    520142855
        0x00002c18:    183800f0    ..8.    DCD    406323440
        0x00002c1c:    00082000    . ..    DCD    532480
        0x00002c20:    20000820     ..     DCD    536872992
        0x00002c24:    10100408    ....    DCD    269485064
        0x00002c28:    0ff8ff07    ....    DCD    267976455
        0x00002c2c:    0000f0ff    ....    DCD    61695
        0x00002c30:    00000010    ....    DCD    16
        0x00002c34:    00000000    ....    DCD    0
        0x00002c38:    07000000    ....    DCD    117440512
        0x00002c3c:    f01f00c0    ....    DCD    4028563648
        0x00002c40:    00301200    ..0.    DCD    3150336
        0x00002c44:    22001822    ".."    DCD    570431522
        0x00002c48:    08220008    ..".    DCD    136445960
        0x00002c4c:    00083200    .2..    DCD    537088
        0x00002c50:    0e00101e    ....    DCD    234885150
        0x00002c54:    00000020     ...    DCD    32
        0x00002c58:    00000000    ....    DCD    0
        0x00002c5c:    20000020     ..     DCD    536870944
        0x00002c60:    08200008    .. .    DCD    136314888
        0x00002c64:    03f8ff01    ....    DCD    66649857
        0x00002c68:    2006f8ff    ...     DCD    537327871
        0x00002c6c:    08200408    .. .    DCD    136315912
        0x00002c70:    07082004    . ..    DCD    117972996
        0x00002c74:    00030020     ...    DCD    196640
        0x00002c78:    00000000    ....    DCD    0
        0x00002c7c:    00000000    ....    DCD    0
        0x00002c80:    0e000e00    ....    DCD    234884608
        0x00002c84:    f31f006e    n...    DCD    4078895214
        0x00002c88:    00b13100    .1..    DCD    11612416
        0x00002c8c:    2000b120     ..     DCD    536916256
        0x00002c90:    913100b1    ..1.    DCD    2435907761
        0x00002c94:    00131f00    ....    DCD    1253120
        0x00002c98:    20001e2e    ...     DCD    536878638
        0x00002c9c:    0030000e    ..0.    DCD    3145742
        0x00002ca0:    04000000    ....    DCD    67108864
        0x00002ca4:    ff070800    ....    DCD    4278650880
        0x00002ca8:    f8ff0ff8    ....    DCD    4177465336
        0x00002cac:    00081000    ....    DCD    528384
        0x00002cb0:    20000020     ..     DCD    536870944
        0x00002cb4:    08200000    .. .    DCD    136314880
        0x00002cb8:    00f83f00    .?..    DCD    16269056
        0x00002cbc:    0000f81f    ....    DCD    63519
        0x00002cc0:    00000008    ....    DCD    8
        0x00002cc4:    00000000    ....    DCD    0
        0x00002cc8:    20000000    ...     DCD    536870912
        0x00002ccc:    08200008    .. .    DCD    136314888
        0x00002cd0:    06082000    . ..    DCD    101195776
        0x00002cd4:    3f06f83f    ?..?    DCD    1057421375
        0x00002cd8:    080000f8    ....    DCD    134217976
        0x00002cdc:    00080000    ....    DCD    524288
        0x00002ce0:    00000800    ....    DCD    2048
        0x00002ce4:    00000000    ....    DCD    0
        0x00002ce8:    00000000    ....    DCD    0
        0x00002cec:    00000000    ....    DCD    0
        0x00002cf0:    03000003    ....    DCD    50331651
        0x00002cf4:    00012000    . ..    DCD    73728
        0x00002cf8:    20000120     ..     DCD    536871200
        0x00002cfc:    fe3f0603    ..?.    DCD    4265543171
        0x00002d00:    00fc3f06    .?..    DCD    16531206
        0x00002d04:    00000000    ....    DCD    0
        0x00002d08:    00000000    ....    DCD    0
        0x00002d0c:    04000000    ....    DCD    67108864
        0x00002d10:    ff070800    ....    DCD    4278650880
        0x00002d14:    f8ff0ff8    ....    DCD    4177465336
        0x00002d18:    00880100    ....    DCD    8913152
        0x00002d1c:    2f000003    .../    DCD    788529155
        0x00002d20:    f83800c0    ..8.    DCD    4164419776
        0x00002d24:    00382000    . 8.    DCD    3678208
        0x00002d28:    00000820     ...    DCD    2080
        0x00002d2c:    00000008    ....    DCD    8
        0x00002d30:    00000000    ....    DCD    0
        0x00002d34:    00040000    ....    DCD    262144
        0x00002d38:    08000408    ....    DCD    134218760
        0x00002d3c:    07080004    ....    DCD    117964804
        0x00002d40:    ff0ff8ff    ....    DCD    4279236863
        0x00002d44:    080000f8    ....    DCD    134217976
        0x00002d48:    00080000    ....    DCD    524288
        0x00002d4c:    00000800    ....    DCD    2048
        0x00002d50:    00000000    ....    DCD    0
        0x00002d54:    00082000    . ..    DCD    532480
        0x00002d58:    3f00f83f    ?..?    DCD    1057028159
        0x00002d5c:    081000f8    ....    DCD    135266552
        0x00002d60:    00002000    . ..    DCD    8192
        0x00002d64:    3f00f83f    ?..?    DCD    1057028159
        0x00002d68:    081000f8    ....    DCD    135266552
        0x00002d6c:    00002000    . ..    DCD    8192
        0x00002d70:    3f00f83f    ?..?    DCD    1057028159
        0x00002d74:    080000f8    ....    DCD    134217976
        0x00002d78:    00000000    ....    DCD    0
        0x00002d7c:    3f000820     ..?    DCD    1056966688
        0x00002d80:    f83f00f8    ..?.    DCD    4164878584
        0x00002d84:    00081000    ....    DCD    528384
        0x00002d88:    20000010    ...     DCD    536870928
        0x00002d8c:    08200000    .. .    DCD    136314880
        0x00002d90:    00f83f00    .?..    DCD    16269056
        0x00002d94:    0000f81f    ....    DCD    63519
        0x00002d98:    00000008    ....    DCD    8
        0x00002d9c:    00000000    ....    DCD    0
        0x00002da0:    0f00c007    ....    DCD    251707399
        0x00002da4:    301800f0    ...0    DCD    806879472
        0x00002da8:    00083000    .0..    DCD    536576
        0x00002dac:    20000820     ..     DCD    536872992
        0x00002db0:    08300008    ..0.    DCD    137363464
        0x00002db4:    00301800    ..0.    DCD    3151872
        0x00002db8:    0700f00f    ....    DCD    117501967
        0x00002dbc:    000000c0    ....    DCD    192
        0x00002dc0:    00000000    ....    DCD    0
        0x00002dc4:    3f000120     ..?    DCD    1056964896
        0x00002dc8:    ff3f00ff    ..?.    DCD    4282319103
        0x00002dcc:    00111000    ....    DCD    1118208
        0x00002dd0:    20000920     ..     DCD    536873248
        0x00002dd4:    08200008    .. .    DCD    136314888
        0x00002dd8:    00383000    .08.    DCD    3682304
        0x00002ddc:    0f00f01f    ....    DCD    251719711
        0x00002de0:    000000c0    ....    DCD    192
        0x00002de4:    00000000    ....    DCD    0
        0x00002de8:    1f00c007    ....    DCD    520142855
        0x00002dec:    183800f0    ..8.    DCD    406323440
        0x00002df0:    00082000    . ..    DCD    532480
        0x00002df4:    20000820     ..     DCD    536872992
        0x00002df8:    11100009    ....    DCD    286261257
        0x00002dfc:    00ff1f00    ....    DCD    16719616
        0x00002e00:    0000ff3f    ?...    DCD    65343
        0x00002e04:    00000001    ....    DCD    1
        0x00002e08:    00082000    . ..    DCD    532480
        0x00002e0c:    20000820     ..     DCD    536872992
        0x00002e10:    f83f0008    ..?.    DCD    4164878344
        0x00002e14:    00f83f00    .?..    DCD    16269056
        0x00002e18:    10000808    ....    DCD    268437512
        0x00002e1c:    08200008    .. .    DCD    136314888
        0x00002e20:    00002000    . ..    DCD    8192
        0x00002e24:    30000030    0..0    DCD    805306416
        0x00002e28:    00000000    ....    DCD    0
        0x00002e2c:    00000000    ....    DCD    0
        0x00002e30:    0c000000    ....    DCD    201326592
        0x00002e34:    181e0078    x...    DCD    404619384
        0x00002e38:    00083300    .3..    DCD    537344
        0x00002e3c:    21000823    #..!    DCD    553650211
        0x00002e40:    88210008    ..!.    DCD    2283864072
        0x00002e44:    00982100    .!..    DCD    9969920
        0x00002e48:    3800f030    0..8    DCD    939585584
        0x00002e4c:    00000060    `...    DCD    96
        0x00002e50:    00000000    ....    DCD    0
        0x00002e54:    20000020     ..     DCD    536870944
        0x00002e58:    00200000    .. .    DCD    2097152
        0x00002e5c:    03f0ff00    ....    DCD    66125568
        0x00002e60:    2000f8ff    ...     DCD    536934655
        0x00002e64:    08200008    .. .    DCD    136314888
        0x00002e68:    00082000    . ..    DCD    532480
        0x00002e6c:    00003000    .0..    DCD    12288
        0x00002e70:    00000000    ....    DCD    0
        0x00002e74:    00000000    ....    DCD    0
        0x00002e78:    3f000020     ..?    DCD    1056964640
        0x00002e7c:    f87f00f0    ....    DCD    4169072880
        0x00002e80:    00180000    ....    DCD    1572864
        0x00002e84:    00000800    ....    DCD    2048
        0x00002e88:    10200008    .. .    DCD    270532616
        0x00002e8c:    00f83f00    .?..    DCD    16269056
        0x00002e90:    0000f07f    ....    DCD    61567
        0x00002e94:    00000010    ....    DCD    16
        0x00002e98:    00000000    ....    DCD    0
        0x00002e9c:    30000020     ..0    DCD    805306400
        0x00002ea0:    003c0000    ..<.    DCD    3932160
        0x00002ea4:    00803f00    .?..    DCD    8404736
        0x00002ea8:    0000f023    #...    DCD    61475
        0x00002eac:    70000078    x..p    DCD    1879048312
        0x00002eb0:    00802300    .#..    DCD    8397568
        0x00002eb4:    3000003c    <..0    DCD    805306428
        0x00002eb8:    00200000    .. .    DCD    2097152
        0x00002ebc:    00002000    . ..    DCD    8192
        0x00002ec0:    3f00003c    <..?    DCD    1056964668
        0x00002ec4:    f82300e0    ..#.    DCD    4163043552
        0x00002ec8:    00e00000    ....    DCD    14680064
        0x00002ecc:    3e000027    '..>    DCD    1040187431
        0x00002ed0:    e03f0000    ..?.    DCD    3762225152
        0x00002ed4:    00f82100    .!..    DCD    16261376
        0x00002ed8:    3e00e001    ...>    DCD    1040244737
        0x00002edc:    00200000    .. .    DCD    2097152
        0x00002ee0:    00000000    ....    DCD    0
        0x00002ee4:    20000820     ..     DCD    536872992
        0x00002ee8:    38380008    ..88    DCD    943194120
        0x00002eec:    00683e00    .>h.    DCD    6831616
        0x00002ef0:    03008027    '...    DCD    50364455
        0x00002ef4:    f82c00c8    ..,.    DCD    4163633352
        0x00002ef8:    00383800    .88.    DCD    3684352
        0x00002efc:    20001820     ..     DCD    536877088
        0x00002f00:    00000008    ....    DCD    8
        0x00002f04:    00000000    ....    DCD    0
        0x00002f08:    30000020     ..0    DCD    805306400
        0x00002f0c:    013c0003    ..<.    DCD    20709379
        0x00002f10:    00833f00    .?..    DCD    8601344
        0x00002f14:    0000ec23    #...    DCD    60451
        0x00002f18:    80230070    p.#.    DCD    2149777520
        0x00002f1c:    00003c00    .<..    DCD    15360
        0x00002f20:    20000020     ..     DCD    536870944
        0x00002f24:    00000000    ....    DCD    0
        0x00002f28:    00000000    ....    DCD    0
        0x00002f2c:    38000000    ...8    DCD    939524096
        0x00002f30:    38200008    .. 8    DCD    941621256
        0x00002f34:    00f82000    . ..    DCD    16261120
        0x00002f38:    2f00e823    #../    DCD    788588579
        0x00002f3c:    083e0088    ..>.    DCD    138281096
        0x00002f40:    00083800    .8..    DCD    538624
        0x00002f44:    00001820     ...    DCD    6176
        0x00002f48:    00000070    p...    DCD    112
        0x00002f4c:    00000000    ....    DCD    0
        0x00002f50:    00000000    ....    DCD    0
        0x00002f54:    00000000    ....    DCD    0
        0x00002f58:    00000000    ....    DCD    0
        0x00002f5c:    14000008    ....    DCD    335544328
        0x00002f60:    fcf71f00    ....    DCD    4244053760
        0x00002f64:    20060030    0..     DCD    537264176
        0x00002f68:    00000200    ....    DCD    512
        0x00002f6c:    00000000    ....    DCD    0
        0x00002f70:    00000000    ....    DCD    0
        0x00002f74:    00000000    ....    DCD    0
        0x00002f78:    00000000    ....    DCD    0
        0x00002f7c:    00000000    ....    DCD    0
        0x00002f80:    ffff0000    ....    DCD    4294901760
        0x00002f84:    000000ff    ....    DCD    255
        0x00002f88:    00000000    ....    DCD    0
        0x00002f8c:    00000000    ....    DCD    0
        0x00002f90:    00000000    ....    DCD    0
        0x00002f94:    00000000    ....    DCD    0
        0x00002f98:    00200000    .. .    DCD    2097152
        0x00002f9c:    06003002    .0..    DCD    100675586
        0x00002fa0:    00fcf71f    ....    DCD    16578335
        0x00002fa4:    08000014    ....    DCD    134217748
        0x00002fa8:    00000000    ....    DCD    0
        0x00002fac:    00000000    ....    DCD    0
        0x00002fb0:    00000000    ....    DCD    0
        0x00002fb4:    00000000    ....    DCD    0
        0x00002fb8:    18000000    ....    DCD    402653184
        0x00002fbc:    00600000    ..`.    DCD    6291456
        0x00002fc0:    00004000    .@..    DCD    16384
        0x00002fc4:    20000040    @..     DCD    536870976
        0x00002fc8:    00100000    ....    DCD    1048576
        0x00002fcc:    00000800    ....    DCD    2048
        0x00002fd0:    04000004    ....    DCD    67108868
        0x00002fd4:    000c0000    ....    DCD    786432
        0x00002fd8:    00001000    ....    DCD    4096
    Region$$Table$$Base
        0x00002fdc:    00002ffc    ./..    DCD    12284
        0x00002fe0:    20000000    ...     DCD    536870912
        0x00002fe4:    00000014    ....    DCD    20
        0x00002fe8:    00000098    ....    DCD    152
        0x00002fec:    00003010    .0..    DCD    12304
        0x00002ff0:    20000014    ...     DCD    536870932
        0x00002ff4:    0000087c    |...    DCD    2172
        0x00002ff8:    000000b4    ....    DCD    180
    Region$$Table$$Limit

====================================

** Section #2

    Name        : RW_IRAM1
    Type        : SHT_PROGBITS (0x00000001)
    Flags       : SHF_ALLOC + SHF_WRITE (0x00000003)
    Addr        : 0x20000000
    File Offset : 12336 (0x3030)
    Size        : 20 bytes (0x14)
    Link        : SHN_UNDEF
    Info        : 0
    Alignment   : 4
    Entry Size  : 0


====================================

** Section #3

    Name        : RW_IRAM1
    Type        : SHT_NOBITS (0x00000008)
    Flags       : SHF_ALLOC + SHF_WRITE (0x00000003)
    Addr        : 0x20000014
    File Offset : 12356 (0x3044)
    Size        : 2172 bytes (0x87c)
    Link        : SHN_UNDEF
    Info        : 0
    Alignment   : 16
    Entry Size  : 0


====================================

** Section #4

    Name        : .debug_abbrev
    Type        : SHT_PROGBITS (0x00000001)
    Flags       : None (0x00000000)
    Addr        : 0x00000000
    File Offset : 12356 (0x3044)
    Size        : 1476 bytes (0x5c4)
    Link        : SHN_UNDEF
    Info        : 0
    Alignment   : 1
    Entry Size  : 0


====================================

** Section #5

    Name        : .debug_frame
    Type        : SHT_PROGBITS (0x00000001)
    Flags       : None (0x00000000)
    Addr        : 0x00000000
    File Offset : 13832 (0x3608)
    Size        : 2588 bytes (0xa1c)
    Link        : SHN_UNDEF
    Info        : 0
    Alignment   : 1
    Entry Size  : 0


====================================

** Section #6

    Name        : .debug_info
    Type        : SHT_PROGBITS (0x00000001)
    Flags       : None (0x00000000)
    Addr        : 0x00000000
    File Offset : 16420 (0x4024)
    Size        : 14360 bytes (0x3818)
    Link        : SHN_UNDEF
    Info        : 0
    Alignment   : 1
    Entry Size  : 0


====================================

** Section #7

    Name        : .debug_line
    Type        : SHT_PROGBITS (0x00000001)
    Flags       : None (0x00000000)
    Addr        : 0x00000000
    File Offset : 30780 (0x783c)
    Size        : 7164 bytes (0x1bfc)
    Link        : SHN_UNDEF
    Info        : 0
    Alignment   : 1
    Entry Size  : 0


====================================

** Section #8

    Name        : .debug_loc
    Type        : SHT_PROGBITS (0x00000001)
    Flags       : None (0x00000000)
    Addr        : 0x00000000
    File Offset : 37944 (0x9438)
    Size        : 4260 bytes (0x10a4)
    Link        : SHN_UNDEF
    Info        : 0
    Alignment   : 1
    Entry Size  : 0


====================================

** Section #9

    Name        : .debug_macinfo
    Type        : SHT_PROGBITS (0x00000001)
    Flags       : None (0x00000000)
    Addr        : 0x00000000
    File Offset : 42204 (0xa4dc)
    Size        : 5028 bytes (0x13a4)
    Link        : SHN_UNDEF
    Info        : 0
    Alignment   : 1
    Entry Size  : 0


====================================

** Section #10

    Name        : .debug_pubnames
    Type        : SHT_PROGBITS (0x00000001)
    Flags       : None (0x00000000)
    Addr        : 0x00000000
    File Offset : 47232 (0xb880)
    Size        : 1658 bytes (0x67a)
    Link        : SHN_UNDEF
    Info        : 0
    Alignment   : 1
    Entry Size  : 0


====================================

** Section #11

    Name        : .symtab
    Type        : SHT_SYMTAB (0x00000002)
    Flags       : None (0x00000000)
    Addr        : 0x00000000
    File Offset : 48892 (0xbefc)
    Size        : 7696 bytes (0x1e10)
    Link        : Section 12 (.strtab)
    Info        : Last local symbol no = 318
    Alignment   : 4
    Entry Size  : 16


====================================

** Section #12

    Name        : .strtab
    Type        : SHT_STRTAB (0x00000003)
    Flags       : None (0x00000000)
    Addr        : 0x00000000
    File Offset : 56588 (0xdd0c)
    Size        : 5492 bytes (0x1574)
    Link        : SHN_UNDEF
    Info        : 0
    Alignment   : 1
    Entry Size  : 0


====================================

** Section #13

    Name        : .note
    Type        : SHT_NOTE (0x00000007)
    Flags       : None (0x00000000)
    Addr        : 0x00000000
    File Offset : 62080 (0xf280)
    Size        : 28 bytes (0x1c)
    Link        : SHN_UNDEF
    Info        : 0
    Alignment   : 4
    Entry Size  : 0

        Section     Segment
    ====================================

              1           0
              2           0
              3           0

====================================

** Section #14

    Name        : .comment
    Type        : SHT_PROGBITS (0x00000001)
    Flags       : None (0x00000000)
    Addr        : 0x00000000
    File Offset : 62108 (0xf29c)
    Size        : 4624 bytes (0x1210)
    Link        : SHN_UNDEF
    Info        : 0
    Alignment   : 1
    Entry Size  : 0

    Component: ARM Compiler 5.06 update 6 (build 750) Tool: armlink [4d35ed]
    ArmLink --strict --callgraph --load_addr_map_info --map --symbols --xref --diag_suppress=9931 --cpu=Cortex-M0 --list=.\Listings\code.map --output=.\code.axf --scatter=.\code.sct --entry=Reset_Handler --info=summarysizes,sizes,totals,unused,veneers

    C:\Keil_v5\ARM\ARMCC\Bin\..\lib\armlib\c_p.l
    C:\Keil_v5\ARM\ARMCC\Bin\..\lib\armlib\fz_ps.l
    C:\Keil_v5\ARM\ARMCC\Bin\..\lib\armlib\h_p.l
    C:\Keil_v5\ARM\ARMCC\Bin\..\lib\armlib\m_ps.l
    C:\Keil_v5\ARM\ARMCC\Bin\..\lib\armlib\vfpsupport.l
    Input Comments:
    
    main.o
    
    Component: ARM Compiler 5.06 update 6 (build 750) Tool: ArmCC [4d3637]
    ArmCC --c99 --split_sections --debug -c -o.\main.o --depend=.\main.d --cpu=Cortex-M0 --apcs=interwork -O3 --diag_suppress=9931 -I.\RTE\_code -IC:\Keil_v5\ARM\PACK\ARM\CMSIS\5.4.0\Device\ARM\ARMCM0\Include -IC:\Keil_v5\ARM\CMSIS\Include -D__UVISION_VERSION=527 -DARMCM0 -DUSE_STDPERIPH_DRIVER --omf_browse=.\main.crf main.c
    
    code_def.o
    
    Component: ARM Compiler 5.06 update 6 (build 750) Tool: ArmCC [4d3637]
    ArmCC --c99 --split_sections --debug -c -o.\code_def.o --depend=.\code_def.d --cpu=Cortex-M0 --apcs=interwork -O3 --diag_suppress=9931 -I.\RTE\_code -IC:\Keil_v5\ARM\PACK\ARM\CMSIS\5.4.0\Device\ARM\ARMCM0\Include -IC:\Keil_v5\ARM\CMSIS\Include -D__UVISION_VERSION=527 -DARMCM0 -DUSE_STDPERIPH_DRIVER --omf_browse=.\code_def.crf code_def.c
    
    lcd.o
    
    Component: ARM Compiler 5.06 update 6 (build 750) Tool: ArmCC [4d3637]
    ArmCC --c99 --split_sections --debug -c -o.\lcd.o --depend=.\lcd.d --cpu=Cortex-M0 --apcs=interwork -O3 --diag_suppress=9931 -I.\RTE\_code -IC:\Keil_v5\ARM\PACK\ARM\CMSIS\5.4.0\Device\ARM\ARMCM0\Include -IC:\Keil_v5\ARM\CMSIS\Include -D__UVISION_VERSION=527 -DARMCM0 -DUSE_STDPERIPH_DRIVER --omf_browse=.\lcd.crf lcd.c
    
    systick.o
    
    Component: ARM Compiler 5.06 update 6 (build 750) Tool: ArmCC [4d3637]
    ArmCC --c99 --split_sections --debug -c -o.\systick.o --depend=.\systick.d --cpu=Cortex-M0 --apcs=interwork -O3 --diag_suppress=9931 -I.\RTE\_code -IC:\Keil_v5\ARM\PACK\ARM\CMSIS\5.4.0\Device\ARM\ARMCM0\Include -IC:\Keil_v5\ARM\CMSIS\Include -D__UVISION_VERSION=527 -DARMCM0 -DUSE_STDPERIPH_DRIVER --omf_browse=.\systick.crf systick.c
    
    keyboard.o
    
    Component: ARM Compiler 5.06 update 6 (build 750) Tool: ArmCC [4d3637]
    ArmCC --c99 --split_sections --debug -c -o.\keyboard.o --depend=.\keyboard.d --cpu=Cortex-M0 --apcs=interwork -O3 --diag_suppress=9931 -I.\RTE\_code -IC:\Keil_v5\ARM\PACK\ARM\CMSIS\5.4.0\Device\ARM\ARMCM0\Include -IC:\Keil_v5\ARM\CMSIS\Include -D__UVISION_VERSION=527 -DARMCM0 -DUSE_STDPERIPH_DRIVER --omf_browse=.\keyboard.crf keyboard.c
    
    gyroscope.o
    
    Component: ARM Compiler 5.06 update 6 (build 750) Tool: ArmCC [4d3637]
    ArmCC --c99 --split_sections --debug -c -o.\gyroscope.o --depend=.\gyroscope.d --cpu=Cortex-M0 --apcs=interwork -O3 --diag_suppress=9931 -I.\RTE\_code -IC:\Keil_v5\ARM\PACK\ARM\CMSIS\5.4.0\Device\ARM\ARMCM0\Include -IC:\Keil_v5\ARM\CMSIS\Include -D__UVISION_VERSION=527 -DARMCM0 -DUSE_STDPERIPH_DRIVER --omf_browse=.\gyroscope.crf gyroscope.c
    
    ui.o
    
    Component: ARM Compiler 5.06 update 6 (build 750) Tool: ArmCC [4d3637]
    ArmCC --c99 --split_sections --debug -c -o.\ui.o --depend=.\ui.d --cpu=Cortex-M0 --apcs=interwork -O3 --diag_suppress=9931 -I.\RTE\_code -IC:\Keil_v5\ARM\PACK\ARM\CMSIS\5.4.0\Device\ARM\ARMCM0\Include -IC:\Keil_v5\ARM\CMSIS\Include -D__UVISION_VERSION=527 -DARMCM0 -DUSE_STDPERIPH_DRIVER --omf_browse=.\ui.crf UI.c
    
    cartoon.o
    
    Component: ARM Compiler 5.06 update 6 (build 750) Tool: ArmCC [4d3637]
    ArmCC --c99 --split_sections --debug -c -o.\cartoon.o --depend=.\cartoon.d --cpu=Cortex-M0 --apcs=interwork -O3 --diag_suppress=9931 -I.\RTE\_code -IC:\Keil_v5\ARM\PACK\ARM\CMSIS\5.4.0\Device\ARM\ARMCM0\Include -IC:\Keil_v5\ARM\CMSIS\Include -D__UVISION_VERSION=527 -DARMCM0 -DUSE_STDPERIPH_DRIVER --omf_browse=.\cartoon.crf cartoon.c
    
    logic.o
    
    Component: ARM Compiler 5.06 update 6 (build 750) Tool: ArmCC [4d3637]
    ArmCC --c99 --split_sections --debug -c -o.\logic.o --depend=.\logic.d --cpu=Cortex-M0 --apcs=interwork -O3 --diag_suppress=9931 -I.\RTE\_code -IC:\Keil_v5\ARM\PACK\ARM\CMSIS\5.4.0\Device\ARM\ARMCM0\Include -IC:\Keil_v5\ARM\CMSIS\Include -D__UVISION_VERSION=527 -DARMCM0 -DUSE_STDPERIPH_DRIVER --omf_browse=.\logic.crf logic.c
    
    startup_cmsdk_cm0.o
    
    Component: ARM Compiler 5.06 update 6 (build 750) Tool: armasm [4d35ec]
    ArmAsm --debug --diag_suppress=9931 --cpu=Cortex-M0 --apcs=interwork --depend=.\startup_cmsdk_cm0.d  -I.\RTE\_code -IC:\Keil_v5\ARM\PACK\ARM\CMSIS\5.4.0\Device\ARM\ARMCM0\Include -IC:\Keil_v5\ARM\CMSIS\Include --predefine="__UVISION_VERSIO
    
    
    
    
    

====================================

** Section #15

    Name        : .shstrtab
    Type        : SHT_STRTAB (0x00000003)
    Flags       : None (0x00000000)
    Addr        : 0x00000000
    File Offset : 66732 (0x104ac)
    Size        : 156 bytes (0x9c)
    Link        : SHN_UNDEF
    Info        : 0
    Alignment   : 1
    Entry Size  : 0


====================================

